; ModuleID = 'Logger.cpp'
source_filename = "Logger.cpp"
target datalayout = "e-m:e-p270:32:32-p271:32:32-p272:64:64-i64:64-f80:128-n8:16:32:64-S128"
target triple = "x86_64-pc-linux-gnu"

%"class.std::ios_base::Init" = type { i8 }
%struct._IO_FILE = type { i32, i8*, i8*, i8*, i8*, i8*, i8*, i8*, i8*, i8*, i8*, i8*, %struct._IO_marker*, %struct._IO_FILE*, i32, i32, i64, i16, i8, [1 x i8], i8*, i64, %struct._IO_codecvt*, %struct._IO_wide_data*, %struct._IO_FILE*, i8*, i64, i32, [20 x i8] }
%struct._IO_marker = type opaque
%struct._IO_codecvt = type opaque
%struct._IO_wide_data = type opaque
%"struct.std::nullopt_t" = type { i8 }
%"struct.std::in_place_t" = type { i8 }
%class.GraphEditor = type <{ %"class.std::unordered_map", %"class.std::vector", %"class.std::optional", [6 x i8] }>
%"class.std::unordered_map" = type { %"class.std::_Hashtable" }
%"class.std::_Hashtable" = type { %"struct.std::__detail::_Hash_node_base"**, i64, %"struct.std::__detail::_Hash_node_base", i64, %"struct.std::__detail::_Prime_rehash_policy", %"struct.std::__detail::_Hash_node_base"* }
%"struct.std::__detail::_Hash_node_base" = type { %"struct.std::__detail::_Hash_node_base"* }
%"struct.std::__detail::_Prime_rehash_policy" = type { float, i64 }
%"class.std::vector" = type { %"struct.std::_Vector_base" }
%"struct.std::_Vector_base" = type { %"struct.std::_Vector_base<std::array<unsigned long, 3>, std::allocator<std::array<unsigned long, 3>>>::_Vector_impl" }
%"struct.std::_Vector_base<std::array<unsigned long, 3>, std::allocator<std::array<unsigned long, 3>>>::_Vector_impl" = type { %"struct.std::_Vector_base<std::array<unsigned long, 3>, std::allocator<std::array<unsigned long, 3>>>::_Vector_impl_data" }
%"struct.std::_Vector_base<std::array<unsigned long, 3>, std::allocator<std::array<unsigned long, 3>>>::_Vector_impl_data" = type { %"struct.std::array"*, %"struct.std::array"*, %"struct.std::array"* }
%"struct.std::array" = type { [3 x i64] }
%"class.std::optional" = type { %"struct.std::_Optional_base" }
%"struct.std::_Optional_base" = type { %"struct.std::_Optional_payload" }
%"struct.std::_Optional_payload" = type { %"struct.std::_Optional_payload_base" }
%"struct.std::_Optional_payload_base" = type { %"union.std::_Optional_payload_base<bool>::_Storage", i8 }
%"union.std::_Optional_payload_base<bool>::_Storage" = type { %"struct.std::_Optional_payload_base<bool>::_Empty_byte" }
%"struct.std::_Optional_payload_base<bool>::_Empty_byte" = type { i8 }
%"struct.std::piecewise_construct_t" = type { i8 }
%"class.std::map" = type { %"class.std::_Rb_tree" }
%"class.std::_Rb_tree" = type { %"struct.std::_Rb_tree<long, std::pair<const long, long>, std::_Select1st<std::pair<const long, long>>, std::less<long>>::_Rb_tree_impl" }
%"struct.std::_Rb_tree<long, std::pair<const long, long>, std::_Select1st<std::pair<const long, long>>, std::less<long>>::_Rb_tree_impl" = type { %"struct.std::_Rb_tree_key_compare", %"struct.std::_Rb_tree_header" }
%"struct.std::_Rb_tree_key_compare" = type { %"struct.std::less" }
%"struct.std::less" = type { i8 }
%"struct.std::_Rb_tree_header" = type { %"struct.std::_Rb_tree_node_base", i64 }
%"struct.std::_Rb_tree_node_base" = type { i32, %"struct.std::_Rb_tree_node_base"*, %"struct.std::_Rb_tree_node_base"*, %"struct.std::_Rb_tree_node_base"* }
%"struct.std::__detail::_Map_base" = type { i8 }
%"struct.std::_Rb_tree_iterator" = type { %"struct.std::_Rb_tree_node_base"* }
%"struct.std::_Rb_tree_const_iterator" = type { %"struct.std::_Rb_tree_node_base"* }
%"class.std::tuple" = type { %"struct.std::_Tuple_impl" }
%"struct.std::_Tuple_impl" = type { %"struct.std::_Head_base" }
%"struct.std::_Head_base" = type { i64* }
%"class.std::tuple.26" = type { i8 }
%"struct.std::pair.8" = type { i64, i64 }
%"class.std::basic_ofstream" = type { %"class.std::basic_ostream.base", %"class.std::basic_filebuf", %"class.std::basic_ios" }
%"class.std::basic_ostream.base" = type { i32 (...)** }
%"class.std::basic_filebuf" = type { %"class.std::basic_streambuf", %union.pthread_mutex_t, %"class.std::__basic_file", i32, %struct.__mbstate_t, %struct.__mbstate_t, %struct.__mbstate_t, i8*, i64, i8, i8, i8, i8, i8*, i8*, i8, %"class.std::codecvt"*, i8*, i64, i8*, i8* }
%"class.std::basic_streambuf" = type { i32 (...)**, i8*, i8*, i8*, i8*, i8*, i8*, %"class.std::locale" }
%"class.std::locale" = type { %"class.std::locale::_Impl"* }
%"class.std::locale::_Impl" = type { i32, %"class.std::locale::facet"**, i64, %"class.std::locale::facet"**, i8** }
%"class.std::locale::facet" = type <{ i32 (...)**, i32, [4 x i8] }>
%union.pthread_mutex_t = type { %struct.__pthread_mutex_s }
%struct.__pthread_mutex_s = type { i32, i32, i32, i32, i32, i16, i16, %struct.__pthread_internal_list }
%struct.__pthread_internal_list = type { %struct.__pthread_internal_list*, %struct.__pthread_internal_list* }
%"class.std::__basic_file" = type <{ %struct._IO_FILE*, i8, [7 x i8] }>
%struct.__mbstate_t = type { i32, %union.anon }
%union.anon = type { i32 }
%"class.std::codecvt" = type { %"class.std::__codecvt_abstract_base.base", %struct.__locale_struct* }
%"class.std::__codecvt_abstract_base.base" = type { %"class.std::locale::facet.base" }
%"class.std::locale::facet.base" = type <{ i32 (...)**, i32 }>
%struct.__locale_struct = type { [13 x %struct.__locale_data*], i16*, i32*, i32*, [13 x i8*] }
%struct.__locale_data = type opaque
%"class.std::basic_ios" = type { %"class.std::ios_base", %"class.std::basic_ostream"*, i8, i8, %"class.std::basic_streambuf"*, %"class.std::ctype"*, %"class.std::num_put"*, %"class.std::num_get"* }
%"class.std::ios_base" = type { i32 (...)**, i64, i64, i32, i32, i32, %"struct.std::ios_base::_Callback_list"*, %"struct.std::ios_base::_Words", [8 x %"struct.std::ios_base::_Words"], i32, %"struct.std::ios_base::_Words"*, %"class.std::locale" }
%"struct.std::ios_base::_Callback_list" = type { %"struct.std::ios_base::_Callback_list"*, void (i32, %"class.std::ios_base"*, i32)*, i32, i32 }
%"struct.std::ios_base::_Words" = type { i8*, i64 }
%"class.std::basic_ostream" = type { i32 (...)**, %"class.std::basic_ios" }
%"class.std::ctype" = type <{ %"class.std::locale::facet.base", [4 x i8], %struct.__locale_struct*, i8, [7 x i8], i32*, i32*, i16*, i8, [256 x i8], [256 x i8], i8, [6 x i8] }>
%"class.std::num_put" = type { %"class.std::locale::facet.base", [4 x i8] }
%"class.std::num_get" = type { %"class.std::locale::facet.base", [4 x i8] }
%"struct.std::__detail::_Node_const_iterator" = type { %"struct.std::__detail::_Node_iterator_base" }
%"struct.std::__detail::_Node_iterator_base" = type { %"struct.std::__detail::_Hash_node"* }
%"struct.std::__detail::_Hash_node" = type { %"struct.std::__detail::_Hash_node_base", %"struct.std::__detail::_Hash_node_value" }
%"struct.std::__detail::_Hash_node_value" = type { %"struct.std::__detail::_Hash_node_value_base" }
%"struct.std::__detail::_Hash_node_value_base" = type { %"struct.__gnu_cxx::__aligned_buffer" }
%"struct.__gnu_cxx::__aligned_buffer" = type { %"union.std::aligned_storage<56, 8>::type" }
%"union.std::aligned_storage<56, 8>::type" = type { [56 x i8] }
%"struct.std::pair" = type { i64, %"class.std::map" }
%class.anon = type { %class.GraphEditor* }
%"struct.std::_Rb_tree_node" = type { %"struct.std::_Rb_tree_node_base", %"struct.__gnu_cxx::__aligned_membuf" }
%"struct.__gnu_cxx::__aligned_membuf" = type { [16 x i8] }
%"class.std::optional.11" = type { %"struct.std::_Optional_base.12" }
%"struct.std::_Optional_base.12" = type { %"struct.std::_Optional_payload.14" }
%"struct.std::_Optional_payload.14" = type { %"struct.std::_Optional_payload_base.base", [7 x i8] }
%"struct.std::_Optional_payload_base.base" = type <{ %"union.std::_Optional_payload_base<std::array<unsigned long, 3>>::_Storage", i8 }>
%"union.std::_Optional_payload_base<std::array<unsigned long, 3>>::_Storage" = type { %"struct.std::array" }
%"class.std::_Optional_base_impl" = type { i8 }
%"struct.std::_Enable_copy_move" = type { i8 }
%"class.__gnu_cxx::__normal_iterator.34" = type { %"struct.std::array"* }
%"class.std::allocator.2" = type { i8 }
%"class.__gnu_cxx::__normal_iterator" = type { %"struct.std::array"* }
%"struct.std::_Enable_copy_move.16" = type { i8 }
%"class.std::_Optional_base_impl.13" = type { i8 }
%"struct.std::_Optional_payload_base.15" = type <{ %"union.std::_Optional_payload_base<std::array<unsigned long, 3>>::_Storage", i8, [7 x i8] }>
%"struct.std::_Optional_payload_base<std::array<unsigned long, 3>>::_Empty_byte" = type { i8 }
%"class.std::__cxx11::basic_string" = type { %"struct.std::__cxx11::basic_string<char>::_Alloc_hider", i64, %union.anon.20 }
%"struct.std::__cxx11::basic_string<char>::_Alloc_hider" = type { i8* }
%union.anon.20 = type { i64, [8 x i8] }
%"class.std::allocator.17" = type { i8 }
%"struct.std::__detail::_Hashtable_base" = type { i8 }
%"struct.std::__detail::_Insert" = type { i8 }
%"struct.std::__detail::_Rehash_base" = type { i8 }
%"struct.std::__detail::_Equality" = type { i8 }
%"struct.std::__detail::_Hashtable_alloc" = type { i8 }
%"struct.std::_Enable_default_constructor" = type { i8 }
%"struct.std::__detail::_Hash_code_base" = type { i8 }
%"struct.std::__detail::_Hashtable_ebo_helper.0" = type { i8 }
%"struct.std::__detail::_Hashtable_ebo_helper.1" = type { i8 }
%"struct.std::__detail::_Hashtable_ebo_helper" = type { i8 }
%"struct.std::equal_to" = type { i8 }
%"struct.std::hash" = type { i8 }
%"class.std::allocator" = type { i8 }
%"class.__gnu_cxx::new_allocator" = type { i8 }
%"class.__gnu_cxx::new_allocator.3" = type { i8 }
%"class.__gnu_cxx::new_allocator.18" = type { i8 }
%"struct.std::less.21" = type { i8 }
%"class.std::allocator.5" = type { i8 }
%"class.__gnu_cxx::new_allocator.6" = type { i8 }
%"class.std::allocator.23" = type { i8 }
%"class.__gnu_cxx::new_allocator.24" = type { i8 }
%"struct.std::_Hashtable<long, std::pair<const long, std::map<long, long>>, std::allocator<std::pair<const long, std::map<long, long>>>, std::__detail::_Select1st, std::equal_to<long>, std::hash<long>, std::__detail::_Mod_range_hashing, std::__detail::_Default_ranged_hash, std::__detail::_Prime_rehash_policy, std::__detail::_Hashtable_traits<false, false, true>>::_Scoped_node" = type { %"struct.std::__detail::_Hashtable_alloc"*, %"struct.std::__detail::_Hash_node"* }
%"struct.std::__detail::_Node_iterator" = type { %"struct.std::__detail::_Node_iterator_base" }
%"struct.std::pair.28" = type { i8, i64 }
%"struct.std::__detail::_Hash_node_code_cache" = type { i8 }
%"struct.std::__detail::_Mod_range_hashing" = type { i8 }
%"struct.std::__detail::_Select1st" = type { i8 }
%"struct.std::_Index_tuple" = type { i8 }
%"struct.std::_Index_tuple.27" = type { i8 }
%"class.std::__pair_base" = type { i8 }
%"struct.std::integral_constant" = type { i8 }
%"struct.std::pair.31" = type { %"struct.std::_Rb_tree_node_base"*, %"struct.std::_Rb_tree_node_base"* }
%"struct.std::_Select1st" = type { i8 }
%"class.std::__pair_base.9" = type { i8 }
%"class.std::__pair_base.32" = type { i8 }

$_ZNSt13unordered_mapIlSt3mapIllSt4lessIlESaISt4pairIKllEEESt4hashIlESt8equal_toIlESaIS3_IS4_S7_EEEixEOl = comdat any

$_ZNSt3mapIllSt4lessIlESaISt4pairIKllEEEixEOl = comdat any

$_ZNKSt13unordered_mapIlSt3mapIllSt4lessIlESaISt4pairIKllEEESt4hashIlESt8equal_toIlESaIS3_IS4_S7_EEE5beginEv = comdat any

$_ZNKSt13unordered_mapIlSt3mapIllSt4lessIlESaISt4pairIKllEEESt4hashIlESt8equal_toIlESaIS3_IS4_S7_EEE3endEv = comdat any

$_ZNSt8__detaileqERKNS_19_Node_iterator_baseISt4pairIKlSt3mapIllSt4lessIlESaIS1_IS2_lEEEELb0EEESC_ = comdat any

$_ZNKSt8__detail20_Node_const_iteratorISt4pairIKlSt3mapIllSt4lessIlESaIS1_IS2_lEEEELb0ELb0EEdeEv = comdat any

$_ZNKSt3mapIllSt4lessIlESaISt4pairIKllEEE5beginEv = comdat any

$_ZNKSt3mapIllSt4lessIlESaISt4pairIKllEEE3endEv = comdat any

$_ZSteqRKSt23_Rb_tree_const_iteratorISt4pairIKllEES5_ = comdat any

$_ZNKSt23_Rb_tree_const_iteratorISt4pairIKllEEdeEv = comdat any

$_ZSt3hexRSt8ios_base = comdat any

$_ZSt3decRSt8ios_base = comdat any

$_ZNSt23_Rb_tree_const_iteratorISt4pairIKllEEppEv = comdat any

$_ZNSt8__detail20_Node_const_iteratorISt4pairIKlSt3mapIllSt4lessIlESaIS1_IS2_lEEEELb0ELb0EEppEv = comdat any

$_ZNSt5arrayImLm3EEixEm = comdat any

$_ZNKSt8optionalIbEcvbEv = comdat any

$_ZNSt8optionalIbEC2IbLb1EEEOT_ = comdat any

$_ZNRSt8optionalIbEdeEv = comdat any

$_ZNSt6vectorISt5arrayImLm3EESaIS1_EE9push_backERKS1_ = comdat any

$_ZNKSt6vectorISt5arrayImLm3EESaIS1_EE5beginEv = comdat any

$_ZNKSt6vectorISt5arrayImLm3EESaIS1_EE3endEv = comdat any

$_ZN9__gnu_cxxeqIPKSt5arrayImLm3EES4_St6vectorIS2_SaIS2_EEEEbRKNS_17__normal_iteratorIT_T1_EERKNS8_IT0_SA_EE = comdat any

$_ZNK9__gnu_cxx17__normal_iteratorIPKSt5arrayImLm3EESt6vectorIS2_SaIS2_EEEdeEv = comdat any

$_ZNKSt5arrayImLm3EEixEm = comdat any

$_ZNSt8optionalISt5arrayImLm3EEEC2IRKS1_Lb1EEEOT_ = comdat any

$_ZN9__gnu_cxx17__normal_iteratorIPKSt5arrayImLm3EESt6vectorIS2_SaIS2_EEEppEv = comdat any

$_ZNSt8optionalISt5arrayImLm3EEEC2ESt9nullopt_t = comdat any

$_ZN11GraphEditor11getInstanceEv = comdat any

$_ZNKSt8optionalISt5arrayImLm3EEEcvbEv = comdat any

$_ZNRSt8optionalISt5arrayImLm3EEEdeEv = comdat any

$_ZNKRSt8optionalIbEdeEv = comdat any

$_ZNKSt19_Optional_base_implISt5arrayImLm3EESt14_Optional_baseIS1_Lb1ELb1EEE13_M_is_engagedEv = comdat any

$_ZNSt19_Optional_base_implISt5arrayImLm3EESt14_Optional_baseIS1_Lb1ELb1EEE6_M_getEv = comdat any

$_ZNSt22_Optional_payload_baseISt5arrayImLm3EEE6_M_getEv = comdat any

$_ZNKSt19_Optional_base_implIbSt14_Optional_baseIbLb1ELb1EEE6_M_getEv = comdat any

$_ZNKSt22_Optional_payload_baseIbE6_M_getEv = comdat any

$_ZNSt8ios_base4setfESt13_Ios_FmtflagsS0_ = comdat any

$_ZStaNRSt13_Ios_FmtflagsS_ = comdat any

$_ZStcoSt13_Ios_Fmtflags = comdat any

$_ZStoRRSt13_Ios_FmtflagsS_ = comdat any

$_ZStanSt13_Ios_FmtflagsS_ = comdat any

$_ZStorSt13_Ios_FmtflagsS_ = comdat any

$_ZNSt14__array_traitsImLm3EE6_S_refERA3_Kmm = comdat any

$_ZNKSt19_Optional_base_implIbSt14_Optional_baseIbLb1ELb1EEE13_M_is_engagedEv = comdat any

$_ZSt7forwardIbEOT_RNSt16remove_referenceIS0_E4typeE = comdat any

$_ZNSt14_Optional_baseIbLb1ELb1EEC2IJbELb0EEESt10in_place_tDpOT_ = comdat any

$__clang_call_terminate = comdat any

$_ZNSt17_Optional_payloadIbLb1ELb1ELb1EECI2St22_Optional_payload_baseIbEIJbEEESt10in_place_tDpOT_ = comdat any

$_ZNSt22_Optional_payload_baseIbEC2IJbEEESt10in_place_tDpOT_ = comdat any

$_ZNSt22_Optional_payload_baseIbE8_StorageIbLb1EEC2IJbEEESt10in_place_tDpOT_ = comdat any

$_ZNSt19_Optional_base_implIbSt14_Optional_baseIbLb1ELb1EEE6_M_getEv = comdat any

$_ZNSt22_Optional_payload_baseIbE6_M_getEv = comdat any

$_ZNK9__gnu_cxx17__normal_iteratorIPKSt5arrayImLm3EESt6vectorIS2_SaIS2_EEE4baseEv = comdat any

$_ZSt7forwardIRKSt5arrayImLm3EEEOT_RNSt16remove_referenceIS4_E4typeE = comdat any

$_ZNSt14_Optional_baseISt5arrayImLm3EELb1ELb1EEC2IJRKS1_ELb0EEESt10in_place_tDpOT_ = comdat any

$_ZNSt17_Optional_payloadISt5arrayImLm3EELb1ELb1ELb1EECI2St22_Optional_payload_baseIS1_EIJRKS1_EEESt10in_place_tDpOT_ = comdat any

$_ZNSt22_Optional_payload_baseISt5arrayImLm3EEEC2IJRKS1_EEESt10in_place_tDpOT_ = comdat any

$_ZNSt22_Optional_payload_baseISt5arrayImLm3EEE8_StorageIS1_Lb1EEC2IJRKS1_EEESt10in_place_tDpOT_ = comdat any

$_ZNSt14_Optional_baseISt5arrayImLm3EELb1ELb1EEC2Ev = comdat any

$_ZNSt17_Optional_payloadISt5arrayImLm3EELb1ELb1ELb1EEC2Ev = comdat any

$_ZNSt22_Optional_payload_baseISt5arrayImLm3EEEC2Ev = comdat any

$_ZNSt22_Optional_payload_baseISt5arrayImLm3EEE8_StorageIS1_Lb1EEC2Ev = comdat any

$_ZN11GraphEditorC2Ev = comdat any

$_ZN11GraphEditorD2Ev = comdat any

$_ZNSt13unordered_mapIlSt3mapIllSt4lessIlESaISt4pairIKllEEESt4hashIlESt8equal_toIlESaIS3_IS4_S7_EEEC2Ev = comdat any

$_ZNSt6vectorISt5arrayImLm3EESaIS1_EEC2Ev = comdat any

$_ZNSt8optionalIbEC2Ev = comdat any

$_ZStplIcSt11char_traitsIcESaIcEENSt7__cxx1112basic_stringIT_T0_T1_EEOS8_PKS5_ = comdat any

$_ZStplIcSt11char_traitsIcESaIcEENSt7__cxx1112basic_stringIT_T0_T1_EEPKS5_OS8_ = comdat any

$_ZNSt7__cxx119to_stringEi = comdat any

$_ZNSt7__cxx1112basic_stringIcSt11char_traitsIcESaIcEED2Ev = comdat any

$_ZNKSt7__cxx1112basic_stringIcSt11char_traitsIcESaIcEE5c_strEv = comdat any

$_ZNSt6vectorISt5arrayImLm3EESaIS1_EED2Ev = comdat any

$_ZNSt13unordered_mapIlSt3mapIllSt4lessIlESaISt4pairIKllEEESt4hashIlESt8equal_toIlESaIS3_IS4_S7_EEED2Ev = comdat any

$_ZNSt10_HashtableIlSt4pairIKlSt3mapIllSt4lessIlESaIS0_IS1_lEEEESaIS8_ENSt8__detail10_Select1stESt8equal_toIlESt4hashIlENSA_18_Mod_range_hashingENSA_20_Default_ranged_hashENSA_20_Prime_rehash_policyENSA_17_Hashtable_traitsILb0ELb0ELb1EEEEC2Ev = comdat any

$_ZNSt8__detail15_Hashtable_baseIlSt4pairIKlSt3mapIllSt4lessIlESaIS1_IS2_lEEEENS_10_Select1stESt8equal_toIlESt4hashIlENS_18_Mod_range_hashingENS_20_Default_ranged_hashENS_17_Hashtable_traitsILb0ELb0ELb1EEEEC2Ev = comdat any

$_ZNSt8__detail16_Hashtable_allocISaINS_10_Hash_nodeISt4pairIKlSt3mapIllSt4lessIlESaIS2_IS3_lEEEELb0EEEEEC2Ev = comdat any

$_ZNSt8__detail15_Hash_node_baseC2Ev = comdat any

$_ZNSt8__detail20_Prime_rehash_policyC2Ef = comdat any

$_ZNSt8__detail15_Hash_code_baseIlSt4pairIKlSt3mapIllSt4lessIlESaIS1_IS2_lEEEENS_10_Select1stESt4hashIlENS_18_Mod_range_hashingENS_20_Default_ranged_hashELb0EEC2Ev = comdat any

$_ZNSt8__detail21_Hashtable_ebo_helperILi0ESt8equal_toIlELb1EEC2Ev = comdat any

$_ZNSt8__detail21_Hashtable_ebo_helperILi1ESt4hashIlELb1EEC2Ev = comdat any

$_ZNSt8__detail21_Hashtable_ebo_helperILi0ESaINS_10_Hash_nodeISt4pairIKlSt3mapIllSt4lessIlESaIS2_IS3_lEEEELb0EEEELb1EEC2Ev = comdat any

$_ZNSaINSt8__detail10_Hash_nodeISt4pairIKlSt3mapIllSt4lessIlESaIS1_IS2_lEEEELb0EEEEC2Ev = comdat any

$_ZN9__gnu_cxx13new_allocatorINSt8__detail10_Hash_nodeISt4pairIKlSt3mapIllSt4lessIlESaIS3_IS4_lEEEELb0EEEEC2Ev = comdat any

$_ZNSt12_Vector_baseISt5arrayImLm3EESaIS1_EEC2Ev = comdat any

$_ZNSt12_Vector_baseISt5arrayImLm3EESaIS1_EE12_Vector_implC2Ev = comdat any

$_ZNSaISt5arrayImLm3EEEC2Ev = comdat any

$_ZNSt12_Vector_baseISt5arrayImLm3EESaIS1_EE17_Vector_impl_dataC2Ev = comdat any

$_ZN9__gnu_cxx13new_allocatorISt5arrayImLm3EEEC2Ev = comdat any

$_ZNSt14_Optional_baseIbLb1ELb1EEC2Ev = comdat any

$_ZNSt17_Optional_payloadIbLb1ELb1ELb1EEC2Ev = comdat any

$_ZNSt22_Optional_payload_baseIbEC2Ev = comdat any

$_ZNSt22_Optional_payload_baseIbE8_StorageIbLb1EEC2Ev = comdat any

$_ZSt4moveIRNSt7__cxx1112basic_stringIcSt11char_traitsIcESaIcEEEEONSt16remove_referenceIT_E4typeEOS8_ = comdat any

$_ZNSt7__cxx1112basic_stringIcSt11char_traitsIcESaIcEE6appendEPKc = comdat any

$_ZNSt7__cxx1112basic_stringIcSt11char_traitsIcESaIcEEC2EOS4_ = comdat any

$_ZNSt11char_traitsIcE6lengthEPKc = comdat any

$_ZNKSt7__cxx1112basic_stringIcSt11char_traitsIcESaIcEE15_M_check_lengthEmmPKc = comdat any

$_ZNSt7__cxx1112basic_stringIcSt11char_traitsIcESaIcEE9_M_appendEPKcm = comdat any

$_ZN9__gnu_cxx11char_traitsIcE6lengthEPKc = comdat any

$_ZN9__gnu_cxx11char_traitsIcE2eqERKcS3_ = comdat any

$_ZNKSt7__cxx1112basic_stringIcSt11char_traitsIcESaIcEE8max_sizeEv = comdat any

$_ZNKSt7__cxx1112basic_stringIcSt11char_traitsIcESaIcEE4sizeEv = comdat any

$_ZNSt16allocator_traitsISaIcEE8max_sizeERKS0_ = comdat any

$_ZNKSt7__cxx1112basic_stringIcSt11char_traitsIcESaIcEE16_M_get_allocatorEv = comdat any

$_ZNKSt7__cxx1112basic_stringIcSt11char_traitsIcESaIcEE8capacityEv = comdat any

$_ZNSt7__cxx1112basic_stringIcSt11char_traitsIcESaIcEE7_S_copyEPcPKcm = comdat any

$_ZNKSt7__cxx1112basic_stringIcSt11char_traitsIcESaIcEE7_M_dataEv = comdat any

$_ZNSt7__cxx1112basic_stringIcSt11char_traitsIcESaIcEE9_M_mutateEmmPKcm = comdat any

$_ZNSt7__cxx1112basic_stringIcSt11char_traitsIcESaIcEE13_M_set_lengthEm = comdat any

$_ZNKSt7__cxx1112basic_stringIcSt11char_traitsIcESaIcEE11_M_is_localEv = comdat any

$_ZNKSt7__cxx1112basic_stringIcSt11char_traitsIcESaIcEE13_M_local_dataEv = comdat any

$_ZNSt14pointer_traitsIPKcE10pointer_toERS0_ = comdat any

$_ZSt9addressofIKcEPT_RS1_ = comdat any

$_ZSt11__addressofIKcEPT_RS1_ = comdat any

$_ZNSt11char_traitsIcE6assignERcRKc = comdat any

$_ZNSt11char_traitsIcE4copyEPcPKcm = comdat any

$_ZNKSt7__cxx1112basic_stringIcSt11char_traitsIcESaIcEE6lengthEv = comdat any

$_ZNSt7__cxx1112basic_stringIcSt11char_traitsIcESaIcEE9_M_createERmm = comdat any

$_ZNSt7__cxx1112basic_stringIcSt11char_traitsIcESaIcEE10_M_disposeEv = comdat any

$_ZNSt7__cxx1112basic_stringIcSt11char_traitsIcESaIcEE7_M_dataEPc = comdat any

$_ZNSt7__cxx1112basic_stringIcSt11char_traitsIcESaIcEE11_M_capacityEm = comdat any

$_ZNSt16allocator_traitsISaIcEE8allocateERS0_m = comdat any

$_ZNSt7__cxx1112basic_stringIcSt11char_traitsIcESaIcEE16_M_get_allocatorEv = comdat any

$_ZN9__gnu_cxx13new_allocatorIcE8allocateEmPKv = comdat any

$_ZNK9__gnu_cxx13new_allocatorIcE11_M_max_sizeEv = comdat any

$_ZNSt7__cxx1112basic_stringIcSt11char_traitsIcESaIcEE10_M_destroyEm = comdat any

$_ZNSt16allocator_traitsISaIcEE10deallocateERS0_Pcm = comdat any

$_ZN9__gnu_cxx13new_allocatorIcE10deallocateEPcm = comdat any

$_ZNSt7__cxx1112basic_stringIcSt11char_traitsIcESaIcEE9_M_lengthEm = comdat any

$_ZNSt7__cxx1112basic_stringIcSt11char_traitsIcESaIcEE13_M_local_dataEv = comdat any

$_ZSt4moveIRSaIcEEONSt16remove_referenceIT_E4typeEOS3_ = comdat any

$_ZNSt7__cxx1112basic_stringIcSt11char_traitsIcESaIcEE12_Alloc_hiderC2EPcOS3_ = comdat any

$_ZNSt7__cxx1112basic_stringIcSt11char_traitsIcESaIcEE12_Alloc_hiderD2Ev = comdat any

$_ZNSt14pointer_traitsIPcE10pointer_toERc = comdat any

$_ZSt9addressofIcEPT_RS0_ = comdat any

$_ZSt11__addressofIcEPT_RS0_ = comdat any

$_ZNSt7__cxx1112basic_stringIcSt11char_traitsIcESaIcEE6insertEmPKc = comdat any

$_ZNSt7__cxx1112basic_stringIcSt11char_traitsIcESaIcEE7replaceEmmPKcm = comdat any

$_ZNSt7__cxx1112basic_stringIcSt11char_traitsIcESaIcEE10_M_replaceEmmPKcm = comdat any

$_ZNKSt7__cxx1112basic_stringIcSt11char_traitsIcESaIcEE8_M_checkEmPKc = comdat any

$_ZNKSt7__cxx1112basic_stringIcSt11char_traitsIcESaIcEE8_M_limitEmm = comdat any

$_ZNKSt7__cxx1112basic_stringIcSt11char_traitsIcESaIcEE11_M_disjunctEPKc = comdat any

$_ZNSt7__cxx1112basic_stringIcSt11char_traitsIcESaIcEE7_S_moveEPcPKcm = comdat any

$_ZNKSt4lessIPKcEclES1_S1_ = comdat any

$_ZNSt11char_traitsIcE4moveEPcPKcm = comdat any

$_ZNSt8__detail14__to_chars_lenIjEEjT_i = comdat any

$_ZNSt7__cxx1112basic_stringIcSt11char_traitsIcESaIcEEC2IS3_EEmcRKS3_ = comdat any

$_ZNSt8__detail18__to_chars_10_implIjEEvPcjT_ = comdat any

$_ZNSt7__cxx1112basic_stringIcSt11char_traitsIcESaIcEEixEm = comdat any

$_ZNSt7__cxx1112basic_stringIcSt11char_traitsIcESaIcEE12_Alloc_hiderC2EPcRKS3_ = comdat any

$_ZNSt7__cxx1112basic_stringIcSt11char_traitsIcESaIcEE12_M_constructEmc = comdat any

$_ZNSt7__cxx1112basic_stringIcSt11char_traitsIcESaIcEE9_S_assignEPcmc = comdat any

$_ZNSt11char_traitsIcE6assignEPcmc = comdat any

$_ZSt8_DestroyIPSt5arrayImLm3EES1_EvT_S3_RSaIT0_E = comdat any

$_ZNSt12_Vector_baseISt5arrayImLm3EESaIS1_EE19_M_get_Tp_allocatorEv = comdat any

$_ZNSt12_Vector_baseISt5arrayImLm3EESaIS1_EED2Ev = comdat any

$_ZSt8_DestroyIPSt5arrayImLm3EEEvT_S3_ = comdat any

$_ZNSt12_Destroy_auxILb1EE9__destroyIPSt5arrayImLm3EEEEvT_S5_ = comdat any

$_ZNSt12_Vector_baseISt5arrayImLm3EESaIS1_EE13_M_deallocateEPS1_m = comdat any

$_ZNSt12_Vector_baseISt5arrayImLm3EESaIS1_EE12_Vector_implD2Ev = comdat any

$_ZNSt16allocator_traitsISaISt5arrayImLm3EEEE10deallocateERS2_PS1_m = comdat any

$_ZN9__gnu_cxx13new_allocatorISt5arrayImLm3EEE10deallocateEPS2_m = comdat any

$_ZNSaISt5arrayImLm3EEED2Ev = comdat any

$_ZNSt10_HashtableIlSt4pairIKlSt3mapIllSt4lessIlESaIS0_IS1_lEEEESaIS8_ENSt8__detail10_Select1stESt8equal_toIlESt4hashIlENSA_18_Mod_range_hashingENSA_20_Default_ranged_hashENSA_20_Prime_rehash_policyENSA_17_Hashtable_traitsILb0ELb0ELb1EEEED2Ev = comdat any

$_ZNSt10_HashtableIlSt4pairIKlSt3mapIllSt4lessIlESaIS0_IS1_lEEEESaIS8_ENSt8__detail10_Select1stESt8equal_toIlESt4hashIlENSA_18_Mod_range_hashingENSA_20_Default_ranged_hashENSA_20_Prime_rehash_policyENSA_17_Hashtable_traitsILb0ELb0ELb1EEEE5clearEv = comdat any

$_ZNSt10_HashtableIlSt4pairIKlSt3mapIllSt4lessIlESaIS0_IS1_lEEEESaIS8_ENSt8__detail10_Select1stESt8equal_toIlESt4hashIlENSA_18_Mod_range_hashingENSA_20_Default_ranged_hashENSA_20_Prime_rehash_policyENSA_17_Hashtable_traitsILb0ELb0ELb1EEEE21_M_deallocate_bucketsEv = comdat any

$_ZNSt8__detail16_Hashtable_allocISaINS_10_Hash_nodeISt4pairIKlSt3mapIllSt4lessIlESaIS2_IS3_lEEEELb0EEEEED2Ev = comdat any

$_ZNSt8__detail16_Hashtable_allocISaINS_10_Hash_nodeISt4pairIKlSt3mapIllSt4lessIlESaIS2_IS3_lEEEELb0EEEEE19_M_deallocate_nodesEPSB_ = comdat any

$_ZNKSt10_HashtableIlSt4pairIKlSt3mapIllSt4lessIlESaIS0_IS1_lEEEESaIS8_ENSt8__detail10_Select1stESt8equal_toIlESt4hashIlENSA_18_Mod_range_hashingENSA_20_Default_ranged_hashENSA_20_Prime_rehash_policyENSA_17_Hashtable_traitsILb0ELb0ELb1EEEE8_M_beginEv = comdat any

$_ZNKSt8__detail10_Hash_nodeISt4pairIKlSt3mapIllSt4lessIlESaIS1_IS2_lEEEELb0EE7_M_nextEv = comdat any

$_ZNSt8__detail16_Hashtable_allocISaINS_10_Hash_nodeISt4pairIKlSt3mapIllSt4lessIlESaIS2_IS3_lEEEELb0EEEEE18_M_deallocate_nodeEPSB_ = comdat any

$_ZNSt16allocator_traitsISaINSt8__detail10_Hash_nodeISt4pairIKlSt3mapIllSt4lessIlESaIS2_IS3_lEEEELb0EEEEE7destroyISA_EEvRSC_PT_ = comdat any

$_ZNSt8__detail16_Hashtable_allocISaINS_10_Hash_nodeISt4pairIKlSt3mapIllSt4lessIlESaIS2_IS3_lEEEELb0EEEEE17_M_node_allocatorEv = comdat any

$_ZNSt8__detail21_Hash_node_value_baseISt4pairIKlSt3mapIllSt4lessIlESaIS1_IS2_lEEEEE9_M_valptrEv = comdat any

$_ZNSt8__detail16_Hashtable_allocISaINS_10_Hash_nodeISt4pairIKlSt3mapIllSt4lessIlESaIS2_IS3_lEEEELb0EEEEE22_M_deallocate_node_ptrEPSB_ = comdat any

$_ZSt10destroy_atISt4pairIKlSt3mapIllSt4lessIlESaIS0_IS1_lEEEEEvPT_ = comdat any

$_ZNSt4pairIKlSt3mapIllSt4lessIlESaIS_IS0_lEEEED2Ev = comdat any

$_ZNSt3mapIllSt4lessIlESaISt4pairIKllEEED2Ev = comdat any

$_ZNSt8_Rb_treeIlSt4pairIKllESt10_Select1stIS2_ESt4lessIlESaIS2_EED2Ev = comdat any

$_ZNSt8_Rb_treeIlSt4pairIKllESt10_Select1stIS2_ESt4lessIlESaIS2_EE8_M_eraseEPSt13_Rb_tree_nodeIS2_E = comdat any

$_ZNSt8_Rb_treeIlSt4pairIKllESt10_Select1stIS2_ESt4lessIlESaIS2_EE8_M_beginEv = comdat any

$_ZNSt8_Rb_treeIlSt4pairIKllESt10_Select1stIS2_ESt4lessIlESaIS2_EE13_Rb_tree_implIS6_Lb1EED2Ev = comdat any

$_ZNSt8_Rb_treeIlSt4pairIKllESt10_Select1stIS2_ESt4lessIlESaIS2_EE8_S_rightEPSt18_Rb_tree_node_base = comdat any

$_ZNSt8_Rb_treeIlSt4pairIKllESt10_Select1stIS2_ESt4lessIlESaIS2_EE7_S_leftEPSt18_Rb_tree_node_base = comdat any

$_ZNSt8_Rb_treeIlSt4pairIKllESt10_Select1stIS2_ESt4lessIlESaIS2_EE12_M_drop_nodeEPSt13_Rb_tree_nodeIS2_E = comdat any

$_ZNSt8_Rb_treeIlSt4pairIKllESt10_Select1stIS2_ESt4lessIlESaIS2_EE15_M_destroy_nodeEPSt13_Rb_tree_nodeIS2_E = comdat any

$_ZNSt8_Rb_treeIlSt4pairIKllESt10_Select1stIS2_ESt4lessIlESaIS2_EE11_M_put_nodeEPSt13_Rb_tree_nodeIS2_E = comdat any

$_ZNSt16allocator_traitsISaISt13_Rb_tree_nodeISt4pairIKllEEEE7destroyIS3_EEvRS5_PT_ = comdat any

$_ZNSt8_Rb_treeIlSt4pairIKllESt10_Select1stIS2_ESt4lessIlESaIS2_EE21_M_get_Node_allocatorEv = comdat any

$_ZNSt13_Rb_tree_nodeISt4pairIKllEE9_M_valptrEv = comdat any

$_ZSt10destroy_atISt4pairIKllEEvPT_ = comdat any

$_ZN9__gnu_cxx16__aligned_membufISt4pairIKllEE6_M_ptrEv = comdat any

$_ZN9__gnu_cxx16__aligned_membufISt4pairIKllEE7_M_addrEv = comdat any

$_ZNSt16allocator_traitsISaISt13_Rb_tree_nodeISt4pairIKllEEEE10deallocateERS5_PS4_m = comdat any

$_ZN9__gnu_cxx13new_allocatorISt13_Rb_tree_nodeISt4pairIKllEEE10deallocateEPS5_m = comdat any

$_ZNKSt8_Rb_treeIlSt4pairIKllESt10_Select1stIS2_ESt4lessIlESaIS2_EE9_M_mbeginEv = comdat any

$_ZNSaISt13_Rb_tree_nodeISt4pairIKllEEED2Ev = comdat any

$_ZNSt8__detail21_Hashtable_ebo_helperILi0ESaINS_10_Hash_nodeISt4pairIKlSt3mapIllSt4lessIlESaIS2_IS3_lEEEELb0EEEELb1EE6_M_getEv = comdat any

$_ZN9__gnu_cxx16__aligned_bufferISt4pairIKlSt3mapIllSt4lessIlESaIS1_IS2_lEEEEE6_M_ptrEv = comdat any

$_ZN9__gnu_cxx16__aligned_bufferISt4pairIKlSt3mapIllSt4lessIlESaIS1_IS2_lEEEEE7_M_addrEv = comdat any

$_ZNSt14pointer_traitsIPNSt8__detail10_Hash_nodeISt4pairIKlSt3mapIllSt4lessIlESaIS2_IS3_lEEEELb0EEEE10pointer_toERSB_ = comdat any

$_ZNSt16allocator_traitsISaINSt8__detail10_Hash_nodeISt4pairIKlSt3mapIllSt4lessIlESaIS2_IS3_lEEEELb0EEEEE10deallocateERSC_PSB_m = comdat any

$_ZSt9addressofINSt8__detail10_Hash_nodeISt4pairIKlSt3mapIllSt4lessIlESaIS2_IS3_lEEEELb0EEEEPT_RSC_ = comdat any

$_ZSt11__addressofINSt8__detail10_Hash_nodeISt4pairIKlSt3mapIllSt4lessIlESaIS2_IS3_lEEEELb0EEEEPT_RSC_ = comdat any

$_ZN9__gnu_cxx13new_allocatorINSt8__detail10_Hash_nodeISt4pairIKlSt3mapIllSt4lessIlESaIS3_IS4_lEEEELb0EEEE10deallocateEPSC_m = comdat any

$_ZNSt10_HashtableIlSt4pairIKlSt3mapIllSt4lessIlESaIS0_IS1_lEEEESaIS8_ENSt8__detail10_Select1stESt8equal_toIlESt4hashIlENSA_18_Mod_range_hashingENSA_20_Default_ranged_hashENSA_20_Prime_rehash_policyENSA_17_Hashtable_traitsILb0ELb0ELb1EEEE21_M_deallocate_bucketsEPPNSA_15_Hash_node_baseEm = comdat any

$_ZNKSt10_HashtableIlSt4pairIKlSt3mapIllSt4lessIlESaIS0_IS1_lEEEESaIS8_ENSt8__detail10_Select1stESt8equal_toIlESt4hashIlENSA_18_Mod_range_hashingENSA_20_Default_ranged_hashENSA_20_Prime_rehash_policyENSA_17_Hashtable_traitsILb0ELb0ELb1EEEE21_M_uses_single_bucketEPPNSA_15_Hash_node_baseE = comdat any

$_ZNSt8__detail16_Hashtable_allocISaINS_10_Hash_nodeISt4pairIKlSt3mapIllSt4lessIlESaIS2_IS3_lEEEELb0EEEEE21_M_deallocate_bucketsEPPNS_15_Hash_node_baseEm = comdat any

$_ZNSt14pointer_traitsIPPNSt8__detail15_Hash_node_baseEE10pointer_toERS2_ = comdat any

$_ZNSaIPNSt8__detail15_Hash_node_baseEEC2INS_10_Hash_nodeISt4pairIKlSt3mapIllSt4lessIlESaIS5_IS6_lEEEELb0EEEEERKSaIT_E = comdat any

$_ZNSt16allocator_traitsISaIPNSt8__detail15_Hash_node_baseEEE10deallocateERS3_PS2_m = comdat any

$_ZSt9addressofIPNSt8__detail15_Hash_node_baseEEPT_RS3_ = comdat any

$_ZSt11__addressofIPNSt8__detail15_Hash_node_baseEEPT_RS3_ = comdat any

$_ZN9__gnu_cxx13new_allocatorIPNSt8__detail15_Hash_node_baseEEC2Ev = comdat any

$_ZN9__gnu_cxx13new_allocatorIPNSt8__detail15_Hash_node_baseEE10deallocateEPS3_m = comdat any

$_ZNSt8__detail21_Hashtable_ebo_helperILi0ESaINS_10_Hash_nodeISt4pairIKlSt3mapIllSt4lessIlESaIS2_IS3_lEEEELb0EEEELb1EED2Ev = comdat any

$_ZNSaINSt8__detail10_Hash_nodeISt4pairIKlSt3mapIllSt4lessIlESaIS1_IS2_lEEEELb0EEEED2Ev = comdat any

$_ZNSt8__detail9_Map_baseIlSt4pairIKlSt3mapIllSt4lessIlESaIS1_IS2_lEEEESaIS9_ENS_10_Select1stESt8equal_toIlESt4hashIlENS_18_Mod_range_hashingENS_20_Default_ranged_hashENS_20_Prime_rehash_policyENS_17_Hashtable_traitsILb0ELb0ELb1EEELb1EEixEOl = comdat any

$_ZSt4moveIRlEONSt16remove_referenceIT_E4typeEOS2_ = comdat any

$_ZNKSt8__detail15_Hash_code_baseIlSt4pairIKlSt3mapIllSt4lessIlESaIS1_IS2_lEEEENS_10_Select1stESt4hashIlENS_18_Mod_range_hashingENS_20_Default_ranged_hashELb0EE12_M_hash_codeERS2_ = comdat any

$_ZNKSt10_HashtableIlSt4pairIKlSt3mapIllSt4lessIlESaIS0_IS1_lEEEESaIS8_ENSt8__detail10_Select1stESt8equal_toIlESt4hashIlENSA_18_Mod_range_hashingENSA_20_Default_ranged_hashENSA_20_Prime_rehash_policyENSA_17_Hashtable_traitsILb0ELb0ELb1EEEE15_M_bucket_indexEm = comdat any

$_ZNKSt10_HashtableIlSt4pairIKlSt3mapIllSt4lessIlESaIS0_IS1_lEEEESaIS8_ENSt8__detail10_Select1stESt8equal_toIlESt4hashIlENSA_18_Mod_range_hashingENSA_20_Default_ranged_hashENSA_20_Prime_rehash_policyENSA_17_Hashtable_traitsILb0ELb0ELb1EEEE12_M_find_nodeEmRS1_m = comdat any

$_ZNSt8__detail21_Hash_node_value_baseISt4pairIKlSt3mapIllSt4lessIlESaIS1_IS2_lEEEEE4_M_vEv = comdat any

$_ZSt16forward_as_tupleIJlEESt5tupleIJDpOT_EES3_ = comdat any

$_ZNSt10_HashtableIlSt4pairIKlSt3mapIllSt4lessIlESaIS0_IS1_lEEEESaIS8_ENSt8__detail10_Select1stESt8equal_toIlESt4hashIlENSA_18_Mod_range_hashingENSA_20_Default_ranged_hashENSA_20_Prime_rehash_policyENSA_17_Hashtable_traitsILb0ELb0ELb1EEEE12_Scoped_nodeC2IJRKSt21piecewise_construct_tSt5tupleIJOlEESR_IJEEEEEPNSA_16_Hashtable_allocISaINSA_10_Hash_nodeIS8_Lb0EEEEEEDpOT_ = comdat any

$_ZNSt10_HashtableIlSt4pairIKlSt3mapIllSt4lessIlESaIS0_IS1_lEEEESaIS8_ENSt8__detail10_Select1stESt8equal_toIlESt4hashIlENSA_18_Mod_range_hashingENSA_20_Default_ranged_hashENSA_20_Prime_rehash_policyENSA_17_Hashtable_traitsILb0ELb0ELb1EEEE21_M_insert_unique_nodeEmmPNSA_10_Hash_nodeIS8_Lb0EEEm = comdat any

$_ZNKSt8__detail14_Node_iteratorISt4pairIKlSt3mapIllSt4lessIlESaIS1_IS2_lEEEELb0ELb0EEptEv = comdat any

$_ZNSt10_HashtableIlSt4pairIKlSt3mapIllSt4lessIlESaIS0_IS1_lEEEESaIS8_ENSt8__detail10_Select1stESt8equal_toIlESt4hashIlENSA_18_Mod_range_hashingENSA_20_Default_ranged_hashENSA_20_Prime_rehash_policyENSA_17_Hashtable_traitsILb0ELb0ELb1EEEE12_Scoped_nodeD2Ev = comdat any

$_ZNKSt8__detail15_Hash_code_baseIlSt4pairIKlSt3mapIllSt4lessIlESaIS1_IS2_lEEEENS_10_Select1stESt4hashIlENS_18_Mod_range_hashingENS_20_Default_ranged_hashELb0EE7_M_hashEv = comdat any

$_ZNKSt4hashIlEclEl = comdat any

$_ZNKSt8__detail21_Hashtable_ebo_helperILi1ESt4hashIlELb1EE7_M_cgetEv = comdat any

$_ZNKSt8__detail15_Hash_code_baseIlSt4pairIKlSt3mapIllSt4lessIlESaIS1_IS2_lEEEENS_10_Select1stESt4hashIlENS_18_Mod_range_hashingENS_20_Default_ranged_hashELb0EE15_M_bucket_indexEmm = comdat any

$_ZNKSt8__detail18_Mod_range_hashingclEmm = comdat any

$_ZNKSt10_HashtableIlSt4pairIKlSt3mapIllSt4lessIlESaIS0_IS1_lEEEESaIS8_ENSt8__detail10_Select1stESt8equal_toIlESt4hashIlENSA_18_Mod_range_hashingENSA_20_Default_ranged_hashENSA_20_Prime_rehash_policyENSA_17_Hashtable_traitsILb0ELb0ELb1EEEE19_M_find_before_nodeEmRS1_m = comdat any

$_ZNKSt8__detail15_Hashtable_baseIlSt4pairIKlSt3mapIllSt4lessIlESaIS1_IS2_lEEEENS_10_Select1stESt8equal_toIlESt4hashIlENS_18_Mod_range_hashingENS_20_Default_ranged_hashENS_17_Hashtable_traitsILb0ELb0ELb1EEEE9_M_equalsERS2_mRKNS_16_Hash_node_valueIS9_Lb0EEE = comdat any

$_ZNKSt10_HashtableIlSt4pairIKlSt3mapIllSt4lessIlESaIS0_IS1_lEEEESaIS8_ENSt8__detail10_Select1stESt8equal_toIlESt4hashIlENSA_18_Mod_range_hashingENSA_20_Default_ranged_hashENSA_20_Prime_rehash_policyENSA_17_Hashtable_traitsILb0ELb0ELb1EEEE15_M_bucket_indexERKNSA_16_Hash_node_valueIS8_Lb0EEE = comdat any

$_ZNSt8__detail15_Hashtable_baseIlSt4pairIKlSt3mapIllSt4lessIlESaIS1_IS2_lEEEENS_10_Select1stESt8equal_toIlESt4hashIlENS_18_Mod_range_hashingENS_20_Default_ranged_hashENS_17_Hashtable_traitsILb0ELb0ELb1EEEE9_S_equalsEmRKNS_21_Hash_node_code_cacheILb0EEE = comdat any

$_ZNKSt8__detail15_Hashtable_baseIlSt4pairIKlSt3mapIllSt4lessIlESaIS1_IS2_lEEEENS_10_Select1stESt8equal_toIlESt4hashIlENS_18_Mod_range_hashingENS_20_Default_ranged_hashENS_17_Hashtable_traitsILb0ELb0ELb1EEEE5_M_eqEv = comdat any

$_ZNKSt8equal_toIlEclERKlS2_ = comdat any

$_ZNKSt8__detail10_Select1stclIRKSt4pairIKlSt3mapIllSt4lessIlESaIS2_IS3_lEEEEEEDTclsr3stdE3getILi0EEclsr3stdE7forwardIT_Efp_EEEOSD_ = comdat any

$_ZNKSt8__detail21_Hash_node_value_baseISt4pairIKlSt3mapIllSt4lessIlESaIS1_IS2_lEEEEE4_M_vEv = comdat any

$_ZNKSt8__detail21_Hashtable_ebo_helperILi0ESt8equal_toIlELb1EE7_M_cgetEv = comdat any

$_ZSt3getILm0EKlSt3mapIllSt4lessIlESaISt4pairIS0_lEEEERKNSt13tuple_elementIXT_ES4_IT0_T1_EE4typeERKSB_ = comdat any

$_ZSt7forwardIRKSt4pairIKlSt3mapIllSt4lessIlESaIS0_IS1_lEEEEEOT_RNSt16remove_referenceISB_E4typeE = comdat any

$_ZNSt10__pair_getILm0EE11__const_getIKlSt3mapIllSt4lessIlESaISt4pairIS2_lEEEEERKT_RKS6_ISA_T0_E = comdat any

$_ZNKSt8__detail21_Hash_node_value_baseISt4pairIKlSt3mapIllSt4lessIlESaIS1_IS2_lEEEEE9_M_valptrEv = comdat any

$_ZNK9__gnu_cxx16__aligned_bufferISt4pairIKlSt3mapIllSt4lessIlESaIS1_IS2_lEEEEE6_M_ptrEv = comdat any

$_ZNK9__gnu_cxx16__aligned_bufferISt4pairIKlSt3mapIllSt4lessIlESaIS1_IS2_lEEEEE7_M_addrEv = comdat any

$_ZNKSt8__detail15_Hash_code_baseIlSt4pairIKlSt3mapIllSt4lessIlESaIS1_IS2_lEEEENS_10_Select1stESt4hashIlENS_18_Mod_range_hashingENS_20_Default_ranged_hashELb0EE15_M_bucket_indexERKNS_16_Hash_node_valueIS9_Lb0EEEm = comdat any

$_ZSt7forwardIlEOT_RNSt16remove_referenceIS0_E4typeE = comdat any

$_ZNSt5tupleIJOlEEC2IJlELb1ELb1EEEDpOT_ = comdat any

$_ZNSt11_Tuple_implILm0EJOlEEC2IlEEOT_ = comdat any

$_ZNSt10_Head_baseILm0EOlLb0EEC2IlEEOT_ = comdat any

$_ZNSt8__detail16_Hashtable_allocISaINS_10_Hash_nodeISt4pairIKlSt3mapIllSt4lessIlESaIS2_IS3_lEEEELb0EEEEE16_M_allocate_nodeIJRKSt21piecewise_construct_tSt5tupleIJOlEESI_IJEEEEEPSB_DpOT_ = comdat any

$_ZSt7forwardIRKSt21piecewise_construct_tEOT_RNSt16remove_referenceIS3_E4typeE = comdat any

$_ZSt7forwardISt5tupleIJOlEEEOT_RNSt16remove_referenceIS3_E4typeE = comdat any

$_ZSt7forwardISt5tupleIJEEEOT_RNSt16remove_referenceIS2_E4typeE = comdat any

$_ZNSt16allocator_traitsISaINSt8__detail10_Hash_nodeISt4pairIKlSt3mapIllSt4lessIlESaIS2_IS3_lEEEELb0EEEEE8allocateERSC_m = comdat any

$_ZSt12__to_addressINSt8__detail10_Hash_nodeISt4pairIKlSt3mapIllSt4lessIlESaIS2_IS3_lEEEELb0EEEEPT_SD_ = comdat any

$_ZNSt8__detail10_Hash_nodeISt4pairIKlSt3mapIllSt4lessIlESaIS1_IS2_lEEEELb0EEC2Ev = comdat any

$_ZNSt16allocator_traitsISaINSt8__detail10_Hash_nodeISt4pairIKlSt3mapIllSt4lessIlESaIS2_IS3_lEEEELb0EEEEE9constructISA_JRKSt21piecewise_construct_tSt5tupleIJOlEESI_IJEEEEEvRSC_PT_DpOT0_ = comdat any

$_ZN9__gnu_cxx13new_allocatorINSt8__detail10_Hash_nodeISt4pairIKlSt3mapIllSt4lessIlESaIS3_IS4_lEEEELb0EEEE8allocateEmPKv = comdat any

$_ZNK9__gnu_cxx13new_allocatorINSt8__detail10_Hash_nodeISt4pairIKlSt3mapIllSt4lessIlESaIS3_IS4_lEEEELb0EEEE11_M_max_sizeEv = comdat any

$_ZSt12construct_atISt4pairIKlSt3mapIllSt4lessIlESaIS0_IS1_lEEEEJRKSt21piecewise_construct_tSt5tupleIJOlEESC_IJEEEEDTgsnwcvPvLi0E_T_pispclsr3stdE7declvalIT0_EEEEPSH_DpOSI_ = comdat any

$_ZNSt5tupleIJOlEEC2EOS1_ = comdat any

$_ZNSt4pairIKlSt3mapIllSt4lessIlESaIS_IS0_lEEEEC2IJOlEJEEESt21piecewise_construct_tSt5tupleIJDpT_EESB_IJDpT0_EE = comdat any

$_ZNSt11_Tuple_implILm0EJOlEEC2EOS1_ = comdat any

$_ZNSt4pairIKlSt3mapIllSt4lessIlESaIS_IS0_lEEEEC2IJOlEJLm0EEJEJEEERSt5tupleIJDpT_EERSA_IJDpT1_EESt12_Index_tupleIJXspT0_EEESJ_IJXspT2_EEE = comdat any

$_ZSt7forwardIOlEOT_RNSt16remove_referenceIS1_E4typeE = comdat any

$_ZSt3getILm0EJOlEERNSt13tuple_elementIXT_ESt5tupleIJDpT0_EEE4typeERS5_ = comdat any

$_ZNSt3mapIllSt4lessIlESaISt4pairIKllEEEC2Ev = comdat any

$_ZSt12__get_helperILm0EOlJEERT0_RSt11_Tuple_implIXT_EJS1_DpT1_EE = comdat any

$_ZNSt11_Tuple_implILm0EJOlEE7_M_headERS1_ = comdat any

$_ZNSt10_Head_baseILm0EOlLb0EE7_M_headERS1_ = comdat any

$_ZNSt8_Rb_treeIlSt4pairIKllESt10_Select1stIS2_ESt4lessIlESaIS2_EEC2Ev = comdat any

$_ZNSt8_Rb_treeIlSt4pairIKllESt10_Select1stIS2_ESt4lessIlESaIS2_EE13_Rb_tree_implIS6_Lb1EEC2Ev = comdat any

$_ZNSaISt13_Rb_tree_nodeISt4pairIKllEEEC2Ev = comdat any

$_ZNSt20_Rb_tree_key_compareISt4lessIlEEC2Ev = comdat any

$_ZNSt15_Rb_tree_headerC2Ev = comdat any

$_ZN9__gnu_cxx13new_allocatorISt13_Rb_tree_nodeISt4pairIKllEEEC2Ev = comdat any

$_ZNSt15_Rb_tree_header8_M_resetEv = comdat any

$_ZNKSt8__detail20_Prime_rehash_policy8_M_stateEv = comdat any

$_ZNSt10_HashtableIlSt4pairIKlSt3mapIllSt4lessIlESaIS0_IS1_lEEEESaIS8_ENSt8__detail10_Select1stESt8equal_toIlESt4hashIlENSA_18_Mod_range_hashingENSA_20_Default_ranged_hashENSA_20_Prime_rehash_policyENSA_17_Hashtable_traitsILb0ELb0ELb1EEEE9_M_rehashEmRKm = comdat any

$_ZNKSt8__detail15_Hash_code_baseIlSt4pairIKlSt3mapIllSt4lessIlESaIS1_IS2_lEEEENS_10_Select1stESt4hashIlENS_18_Mod_range_hashingENS_20_Default_ranged_hashELb0EE13_M_store_codeERNS_21_Hash_node_code_cacheILb0EEEm = comdat any

$_ZNSt10_HashtableIlSt4pairIKlSt3mapIllSt4lessIlESaIS0_IS1_lEEEESaIS8_ENSt8__detail10_Select1stESt8equal_toIlESt4hashIlENSA_18_Mod_range_hashingENSA_20_Default_ranged_hashENSA_20_Prime_rehash_policyENSA_17_Hashtable_traitsILb0ELb0ELb1EEEE22_M_insert_bucket_beginEmPNSA_10_Hash_nodeIS8_Lb0EEE = comdat any

$_ZNSt8__detail14_Node_iteratorISt4pairIKlSt3mapIllSt4lessIlESaIS1_IS2_lEEEELb0ELb0EEC2EPNS_10_Hash_nodeIS9_Lb0EEE = comdat any

$_ZNSt10_HashtableIlSt4pairIKlSt3mapIllSt4lessIlESaIS0_IS1_lEEEESaIS8_ENSt8__detail10_Select1stESt8equal_toIlESt4hashIlENSA_18_Mod_range_hashingENSA_20_Default_ranged_hashENSA_20_Prime_rehash_policyENSA_17_Hashtable_traitsILb0ELb0ELb1EEEE13_M_rehash_auxEmSt17integral_constantIbLb1EE = comdat any

$_ZNSt8__detail20_Prime_rehash_policy8_M_resetEm = comdat any

$_ZNSt10_HashtableIlSt4pairIKlSt3mapIllSt4lessIlESaIS0_IS1_lEEEESaIS8_ENSt8__detail10_Select1stESt8equal_toIlESt4hashIlENSA_18_Mod_range_hashingENSA_20_Default_ranged_hashENSA_20_Prime_rehash_policyENSA_17_Hashtable_traitsILb0ELb0ELb1EEEE19_M_allocate_bucketsEm = comdat any

$_ZNSt8__detail16_Hashtable_allocISaINS_10_Hash_nodeISt4pairIKlSt3mapIllSt4lessIlESaIS2_IS3_lEEEELb0EEEEE19_M_allocate_bucketsEm = comdat any

$_ZNSt16allocator_traitsISaIPNSt8__detail15_Hash_node_baseEEE8allocateERS3_m = comdat any

$_ZSt12__to_addressIPNSt8__detail15_Hash_node_baseEEPT_S4_ = comdat any

$_ZN9__gnu_cxx13new_allocatorIPNSt8__detail15_Hash_node_baseEE8allocateEmPKv = comdat any

$_ZNK9__gnu_cxx13new_allocatorIPNSt8__detail15_Hash_node_baseEE11_M_max_sizeEv = comdat any

$_ZNSt8__detail19_Node_iterator_baseISt4pairIKlSt3mapIllSt4lessIlESaIS1_IS2_lEEEELb0EEC2EPNS_10_Hash_nodeIS9_Lb0EEE = comdat any

$_ZNSt3mapIllSt4lessIlESaISt4pairIKllEEE11lower_boundERS3_ = comdat any

$_ZSteqRKSt17_Rb_tree_iteratorISt4pairIKllEES5_ = comdat any

$_ZNSt3mapIllSt4lessIlESaISt4pairIKllEEE3endEv = comdat any

$_ZNKSt3mapIllSt4lessIlESaISt4pairIKllEEE8key_compEv = comdat any

$_ZNKSt4lessIlEclERKlS2_ = comdat any

$_ZNKSt17_Rb_tree_iteratorISt4pairIKllEEdeEv = comdat any

$_ZNSt8_Rb_treeIlSt4pairIKllESt10_Select1stIS2_ESt4lessIlESaIS2_EE22_M_emplace_hint_uniqueIJRKSt21piecewise_construct_tSt5tupleIJOlEESD_IJEEEEESt17_Rb_tree_iteratorIS2_ESt23_Rb_tree_const_iteratorIS2_EDpOT_ = comdat any

$_ZNSt23_Rb_tree_const_iteratorISt4pairIKllEEC2ERKSt17_Rb_tree_iteratorIS2_E = comdat any

$_ZNSt8_Rb_treeIlSt4pairIKllESt10_Select1stIS2_ESt4lessIlESaIS2_EE11lower_boundERS1_ = comdat any

$_ZNSt8_Rb_treeIlSt4pairIKllESt10_Select1stIS2_ESt4lessIlESaIS2_EE14_M_lower_boundEPSt13_Rb_tree_nodeIS2_EPSt18_Rb_tree_node_baseRS1_ = comdat any

$_ZNSt8_Rb_treeIlSt4pairIKllESt10_Select1stIS2_ESt4lessIlESaIS2_EE6_M_endEv = comdat any

$_ZNSt8_Rb_treeIlSt4pairIKllESt10_Select1stIS2_ESt4lessIlESaIS2_EE6_S_keyEPKSt13_Rb_tree_nodeIS2_E = comdat any

$_ZNSt17_Rb_tree_iteratorISt4pairIKllEEC2EPSt18_Rb_tree_node_base = comdat any

$_ZNKSt10_Select1stISt4pairIKllEEclERKS2_ = comdat any

$_ZNKSt13_Rb_tree_nodeISt4pairIKllEE9_M_valptrEv = comdat any

$_ZNK9__gnu_cxx16__aligned_membufISt4pairIKllEE6_M_ptrEv = comdat any

$_ZNK9__gnu_cxx16__aligned_membufISt4pairIKllEE7_M_addrEv = comdat any

$_ZNSt8_Rb_treeIlSt4pairIKllESt10_Select1stIS2_ESt4lessIlESaIS2_EE3endEv = comdat any

$_ZNKSt8_Rb_treeIlSt4pairIKllESt10_Select1stIS2_ESt4lessIlESaIS2_EE8key_compEv = comdat any

$_ZNSt8_Rb_treeIlSt4pairIKllESt10_Select1stIS2_ESt4lessIlESaIS2_EE14_M_create_nodeIJRKSt21piecewise_construct_tSt5tupleIJOlEESD_IJEEEEEPSt13_Rb_tree_nodeIS2_EDpOT_ = comdat any

$_ZNSt8_Rb_treeIlSt4pairIKllESt10_Select1stIS2_ESt4lessIlESaIS2_EE29_M_get_insert_hint_unique_posESt23_Rb_tree_const_iteratorIS2_ERS1_ = comdat any

$_ZNSt8_Rb_treeIlSt4pairIKllESt10_Select1stIS2_ESt4lessIlESaIS2_EE14_M_insert_nodeEPSt18_Rb_tree_node_baseSA_PSt13_Rb_tree_nodeIS2_E = comdat any

$_ZNSt8_Rb_treeIlSt4pairIKllESt10_Select1stIS2_ESt4lessIlESaIS2_EE11_M_get_nodeEv = comdat any

$_ZNSt8_Rb_treeIlSt4pairIKllESt10_Select1stIS2_ESt4lessIlESaIS2_EE17_M_construct_nodeIJRKSt21piecewise_construct_tSt5tupleIJOlEESD_IJEEEEEvPSt13_Rb_tree_nodeIS2_EDpOT_ = comdat any

$_ZNSt16allocator_traitsISaISt13_Rb_tree_nodeISt4pairIKllEEEE8allocateERS5_m = comdat any

$_ZN9__gnu_cxx13new_allocatorISt13_Rb_tree_nodeISt4pairIKllEEE8allocateEmPKv = comdat any

$_ZNK9__gnu_cxx13new_allocatorISt13_Rb_tree_nodeISt4pairIKllEEE11_M_max_sizeEv = comdat any

$_ZNSt16allocator_traitsISaISt13_Rb_tree_nodeISt4pairIKllEEEE9constructIS3_JRKSt21piecewise_construct_tSt5tupleIJOlEESB_IJEEEEEvRS5_PT_DpOT0_ = comdat any

$_ZSt12construct_atISt4pairIKllEJRKSt21piecewise_construct_tSt5tupleIJOlEES6_IJEEEEDTgsnwcvPvLi0E_T_pispclsr3stdE7declvalIT0_EEEEPSB_DpOSC_ = comdat any

$_ZNSt4pairIKllEC2IJOlEJEEESt21piecewise_construct_tSt5tupleIJDpT_EES5_IJDpT0_EE = comdat any

$_ZNSt4pairIKllEC2IJOlEJLm0EEJEJEEERSt5tupleIJDpT_EERS4_IJDpT1_EESt12_Index_tupleIJXspT0_EEESD_IJXspT2_EEE = comdat any

$_ZNKSt23_Rb_tree_const_iteratorISt4pairIKllEE13_M_const_castEv = comdat any

$_ZNKSt8_Rb_treeIlSt4pairIKllESt10_Select1stIS2_ESt4lessIlESaIS2_EE4sizeEv = comdat any

$_ZNSt8_Rb_treeIlSt4pairIKllESt10_Select1stIS2_ESt4lessIlESaIS2_EE6_S_keyEPKSt18_Rb_tree_node_base = comdat any

$_ZNSt8_Rb_treeIlSt4pairIKllESt10_Select1stIS2_ESt4lessIlESaIS2_EE12_M_rightmostEv = comdat any

$_ZNSt4pairIPSt18_Rb_tree_node_baseS1_EC2IRS1_Lb1EEERKS1_OT_ = comdat any

$_ZNSt8_Rb_treeIlSt4pairIKllESt10_Select1stIS2_ESt4lessIlESaIS2_EE24_M_get_insert_unique_posERS1_ = comdat any

$_ZNSt8_Rb_treeIlSt4pairIKllESt10_Select1stIS2_ESt4lessIlESaIS2_EE11_M_leftmostEv = comdat any

$_ZNSt4pairIPSt18_Rb_tree_node_baseS1_EC2IRS1_S4_Lb1EEEOT_OT0_ = comdat any

$_ZNSt17_Rb_tree_iteratorISt4pairIKllEEmmEv = comdat any

$_ZNSt17_Rb_tree_iteratorISt4pairIKllEEppEv = comdat any

$_ZNSt4pairIPSt18_Rb_tree_node_baseS1_EC2IRS1_Lb1EEEOT_RKS1_ = comdat any

$_ZSt7forwardIRPSt18_Rb_tree_node_baseEOT_RNSt16remove_referenceIS3_E4typeE = comdat any

$_ZNSt8_Rb_treeIlSt4pairIKllESt10_Select1stIS2_ESt4lessIlESaIS2_EE5beginEv = comdat any

$_ZNSt4pairIPSt18_Rb_tree_node_baseS1_EC2IRPSt13_Rb_tree_nodeIS_IKllEERS1_Lb1EEEOT_OT0_ = comdat any

$_ZSt7forwardIRPSt13_Rb_tree_nodeISt4pairIKllEEEOT_RNSt16remove_referenceIS7_E4typeE = comdat any

$_ZNKSt10_HashtableIlSt4pairIKlSt3mapIllSt4lessIlESaIS0_IS1_lEEEESaIS8_ENSt8__detail10_Select1stESt8equal_toIlESt4hashIlENSA_18_Mod_range_hashingENSA_20_Default_ranged_hashENSA_20_Prime_rehash_policyENSA_17_Hashtable_traitsILb0ELb0ELb1EEEE5beginEv = comdat any

$_ZNSt8__detail20_Node_const_iteratorISt4pairIKlSt3mapIllSt4lessIlESaIS1_IS2_lEEEELb0ELb0EEC2EPNS_10_Hash_nodeIS9_Lb0EEE = comdat any

$_ZNKSt10_HashtableIlSt4pairIKlSt3mapIllSt4lessIlESaIS0_IS1_lEEEESaIS8_ENSt8__detail10_Select1stESt8equal_toIlESt4hashIlENSA_18_Mod_range_hashingENSA_20_Default_ranged_hashENSA_20_Prime_rehash_policyENSA_17_Hashtable_traitsILb0ELb0ELb1EEEE3endEv = comdat any

$_ZNSt8__detail19_Node_iterator_baseISt4pairIKlSt3mapIllSt4lessIlESaIS1_IS2_lEEEELb0EE7_M_incrEv = comdat any

$_ZNKSt8_Rb_treeIlSt4pairIKllESt10_Select1stIS2_ESt4lessIlESaIS2_EE5beginEv = comdat any

$_ZNSt23_Rb_tree_const_iteratorISt4pairIKllEEC2EPKSt18_Rb_tree_node_base = comdat any

$_ZNKSt8_Rb_treeIlSt4pairIKllESt10_Select1stIS2_ESt4lessIlESaIS2_EE3endEv = comdat any

$_ZNSt16allocator_traitsISaISt5arrayImLm3EEEE9constructIS1_JRKS1_EEEvRS2_PT_DpOT0_ = comdat any

$_ZNSt6vectorISt5arrayImLm3EESaIS1_EE17_M_realloc_insertIJRKS1_EEEvN9__gnu_cxx17__normal_iteratorIPS1_S3_EEDpOT_ = comdat any

$_ZNSt6vectorISt5arrayImLm3EESaIS1_EE3endEv = comdat any

$_ZSt12construct_atISt5arrayImLm3EEJRKS1_EEDTgsnwcvPvLi0E_T_pispclsr3stdE7declvalIT0_EEEEPS5_DpOS6_ = comdat any

$_ZNKSt6vectorISt5arrayImLm3EESaIS1_EE12_M_check_lenEmPKc = comdat any

$_ZN9__gnu_cxxmiIPSt5arrayImLm3EESt6vectorIS2_SaIS2_EEEENS_17__normal_iteratorIT_T0_E15difference_typeERKSA_SD_ = comdat any

$_ZNSt6vectorISt5arrayImLm3EESaIS1_EE5beginEv = comdat any

$_ZNSt12_Vector_baseISt5arrayImLm3EESaIS1_EE11_M_allocateEm = comdat any

$_ZNSt6vectorISt5arrayImLm3EESaIS1_EE11_S_relocateEPS1_S4_S4_RS2_ = comdat any

$_ZNK9__gnu_cxx17__normal_iteratorIPSt5arrayImLm3EESt6vectorIS2_SaIS2_EEE4baseEv = comdat any

$_ZNKSt6vectorISt5arrayImLm3EESaIS1_EE8max_sizeEv = comdat any

$_ZNKSt6vectorISt5arrayImLm3EESaIS1_EE4sizeEv = comdat any

$_ZSt3maxImERKT_S2_S2_ = comdat any

$_ZNSt6vectorISt5arrayImLm3EESaIS1_EE11_S_max_sizeERKS2_ = comdat any

$_ZNKSt12_Vector_baseISt5arrayImLm3EESaIS1_EE19_M_get_Tp_allocatorEv = comdat any

$_ZNSt16allocator_traitsISaISt5arrayImLm3EEEE8max_sizeERKS2_ = comdat any

$_ZSt3minImERKT_S2_S2_ = comdat any

$_ZN9__gnu_cxx17__normal_iteratorIPSt5arrayImLm3EESt6vectorIS2_SaIS2_EEEC2ERKS3_ = comdat any

$_ZNSt16allocator_traitsISaISt5arrayImLm3EEEE8allocateERS2_m = comdat any

$_ZN9__gnu_cxx13new_allocatorISt5arrayImLm3EEE8allocateEmPKv = comdat any

$_ZNK9__gnu_cxx13new_allocatorISt5arrayImLm3EEE11_M_max_sizeEv = comdat any

$_ZNSt6vectorISt5arrayImLm3EESaIS1_EE14_S_do_relocateEPS1_S4_S4_RS2_St17integral_constantIbLb1EE = comdat any

$_ZSt12__relocate_aIPSt5arrayImLm3EES2_SaIS1_EET0_T_S5_S4_RT1_ = comdat any

$_ZSt14__relocate_a_1ISt5arrayImLm3EES1_ENSt9enable_ifIXsr3std24__is_bitwise_relocatableIT_EE5valueEPS3_E4typeES4_S4_S4_RSaIT0_E = comdat any

$_ZSt12__niter_baseIPSt5arrayImLm3EEET_S3_ = comdat any

$_ZN9__gnu_cxx17__normal_iteratorIPKSt5arrayImLm3EESt6vectorIS2_SaIS2_EEEC2ERKS4_ = comdat any

$_ZSt7nullopt = comdat any

$_ZSt8in_place = comdat any

$_ZZN11GraphEditor11getInstanceEvE6Object = comdat any

$_ZGVZN11GraphEditor11getInstanceEvE6Object = comdat any

$_ZZNSt8__detail18__to_chars_10_implIjEEvPcjT_E8__digits = comdat any

$_ZSt19piecewise_construct = comdat any

@_ZStL8__ioinit = internal global %"class.std::ios_base::Init" zeroinitializer, align 1, !dbg !0
@__dso_handle = external hidden global i8
@.str = private unnamed_addr constant [10 x i8] c"Graph.txt\00", align 1
@.str.1 = private unnamed_addr constant [9 x i8] c"maps.txt\00", align 1
@.str.2 = private unnamed_addr constant [2 x i8] c"r\00", align 1
@.str.3 = private unnamed_addr constant [32 x i8] c"%lx-%lx %s %lx %*x:%*x %*lx %s \00", align 1
@stderr = external global %struct._IO_FILE*, align 8
@.str.4 = private unnamed_addr constant [12 x i8] c"isPIC = %d\0A\00", align 1
@.str.5 = private unnamed_addr constant [7 x i8] c"[heap]\00", align 1
@_ZSt7nullopt = linkonce_odr dso_local constant %"struct.std::nullopt_t" undef, comdat, align 1, !dbg !7
@_ZSt8in_place = linkonce_odr dso_local constant %"struct.std::in_place_t" zeroinitializer, comdat, align 1, !dbg !21
@_ZZN11GraphEditor11getInstanceEvE6Object = linkonce_odr dso_local global %class.GraphEditor zeroinitializer, comdat, align 8, !dbg !31
@_ZGVZN11GraphEditor11getInstanceEvE6Object = linkonce_odr dso_local global i64 0, comdat, align 8
@.str.6 = private unnamed_addr constant [11 x i8] c"cat /proc/\00", align 1
@.str.7 = private unnamed_addr constant [17 x i8] c"/maps > maps.txt\00", align 1
@.str.8 = private unnamed_addr constant [21 x i8] c"basic_string::append\00", align 1
@.str.9 = private unnamed_addr constant [24 x i8] c"basic_string::_M_create\00", align 1
@.str.10 = private unnamed_addr constant [22 x i8] c"basic_string::replace\00", align 1
@.str.11 = private unnamed_addr constant [25 x i8] c"basic_string::_M_replace\00", align 1
@.str.12 = private unnamed_addr constant [55 x i8] c"%s: __pos (which is %zu) > this->size() (which is %zu)\00", align 1
@_ZZNSt8__detail18__to_chars_10_implIjEEvPcjT_E8__digits = linkonce_odr dso_local constant [201 x i8] c"00010203040506070809101112131415161718192021222324252627282930313233343536373839404142434445464748495051525354555657585960616263646566676869707172737475767778798081828384858687888990919293949596979899\00", comdat, align 16, !dbg !4318
@_ZSt19piecewise_construct = linkonce_odr dso_local constant %"struct.std::piecewise_construct_t" undef, comdat, align 1, !dbg !4330
@.str.13 = private unnamed_addr constant [26 x i8] c"vector::_M_realloc_insert\00", align 1
@llvm.global_ctors = appending global [1 x { i32, void ()*, i8* }] [{ i32, void ()*, i8* } { i32 65535, void ()* @_GLOBAL__sub_I_Logger.cpp, i8* null }]

; Function Attrs: noinline uwtable
define internal void @__cxx_global_var_init() #0 section ".text.startup" !dbg !5166 {
  call void @_ZNSt8ios_base4InitC1Ev(%"class.std::ios_base::Init"* noundef nonnull align 1 dereferenceable(1) @_ZStL8__ioinit), !dbg !5167
  %1 = call i32 @__cxa_atexit(void (i8*)* bitcast (void (%"class.std::ios_base::Init"*)* @_ZNSt8ios_base4InitD1Ev to void (i8*)*), i8* getelementptr inbounds (%"class.std::ios_base::Init", %"class.std::ios_base::Init"* @_ZStL8__ioinit, i32 0, i32 0), i8* @__dso_handle) #3, !dbg !5169
  ret void, !dbg !5167
}

declare void @_ZNSt8ios_base4InitC1Ev(%"class.std::ios_base::Init"* noundef nonnull align 1 dereferenceable(1)) unnamed_addr #1

; Function Attrs: nounwind
declare void @_ZNSt8ios_base4InitD1Ev(%"class.std::ios_base::Init"* noundef nonnull align 1 dereferenceable(1)) unnamed_addr #2

; Function Attrs: nounwind
declare i32 @__cxa_atexit(void (i8*)*, i8*, i8*) #3

; Function Attrs: mustprogress noinline optnone uwtable
define dso_local void @_ZN11GraphEditor7addCallEPlS0_(%class.GraphEditor* noundef nonnull align 8 dereferenceable(82) %0, i64* noundef %1, i64* noundef %2) #4 align 2 !dbg !5170 {
  %4 = alloca %class.GraphEditor*, align 8
  %5 = alloca i64*, align 8
  %6 = alloca i64*, align 8
  %7 = alloca i64, align 8
  %8 = alloca i64, align 8
  store %class.GraphEditor* %0, %class.GraphEditor** %4, align 8
  call void @llvm.dbg.declare(metadata %class.GraphEditor** %4, metadata !5171, metadata !DIExpression()), !dbg !5173
  store i64* %1, i64** %5, align 8
  call void @llvm.dbg.declare(metadata i64** %5, metadata !5174, metadata !DIExpression()), !dbg !5175
  store i64* %2, i64** %6, align 8
  call void @llvm.dbg.declare(metadata i64** %6, metadata !5176, metadata !DIExpression()), !dbg !5177
  %9 = load %class.GraphEditor*, %class.GraphEditor** %4, align 8
  %10 = getelementptr inbounds %class.GraphEditor, %class.GraphEditor* %9, i32 0, i32 0, !dbg !5178
  %11 = load i64*, i64** %5, align 8, !dbg !5179
  %12 = ptrtoint i64* %11 to i64, !dbg !5180
  store i64 %12, i64* %7, align 8, !dbg !5180
  %13 = call noundef nonnull align 8 dereferenceable(48) %"class.std::map"* @_ZNSt13unordered_mapIlSt3mapIllSt4lessIlESaISt4pairIKllEEESt4hashIlESt8equal_toIlESaIS3_IS4_S7_EEEixEOl(%"class.std::unordered_map"* noundef nonnull align 8 dereferenceable(56) %10, i64* noundef nonnull align 8 dereferenceable(8) %7), !dbg !5178
  %14 = load i64*, i64** %6, align 8, !dbg !5181
  %15 = ptrtoint i64* %14 to i64, !dbg !5182
  store i64 %15, i64* %8, align 8, !dbg !5182
  %16 = call noundef nonnull align 8 dereferenceable(8) i64* @_ZNSt3mapIllSt4lessIlESaISt4pairIKllEEEixEOl(%"class.std::map"* noundef nonnull align 8 dereferenceable(48) %13, i64* noundef nonnull align 8 dereferenceable(8) %8), !dbg !5178
  %17 = load i64, i64* %16, align 8, !dbg !5183
  %18 = add nsw i64 %17, 1, !dbg !5183
  store i64 %18, i64* %16, align 8, !dbg !5183
  ret void, !dbg !5184
}

; Function Attrs: nofree nosync nounwind readnone speculatable willreturn
declare void @llvm.dbg.declare(metadata, metadata, metadata) #5

; Function Attrs: mustprogress noinline optnone uwtable
define linkonce_odr dso_local noundef nonnull align 8 dereferenceable(48) %"class.std::map"* @_ZNSt13unordered_mapIlSt3mapIllSt4lessIlESaISt4pairIKllEEESt4hashIlESt8equal_toIlESaIS3_IS4_S7_EEEixEOl(%"class.std::unordered_map"* noundef nonnull align 8 dereferenceable(56) %0, i64* noundef nonnull align 8 dereferenceable(8) %1) #4 comdat align 2 !dbg !5185 {
  %3 = alloca %"class.std::unordered_map"*, align 8
  %4 = alloca i64*, align 8
  store %"class.std::unordered_map"* %0, %"class.std::unordered_map"** %3, align 8
  call void @llvm.dbg.declare(metadata %"class.std::unordered_map"** %3, metadata !5186, metadata !DIExpression()), !dbg !5188
  store i64* %1, i64** %4, align 8
  call void @llvm.dbg.declare(metadata i64** %4, metadata !5189, metadata !DIExpression()), !dbg !5190
  %5 = load %"class.std::unordered_map"*, %"class.std::unordered_map"** %3, align 8
  %6 = getelementptr inbounds %"class.std::unordered_map", %"class.std::unordered_map"* %5, i32 0, i32 0, !dbg !5191
  %7 = bitcast %"class.std::_Hashtable"* %6 to %"struct.std::__detail::_Map_base"*, !dbg !5191
  %8 = load i64*, i64** %4, align 8, !dbg !5192
  %9 = call noundef nonnull align 8 dereferenceable(8) i64* @_ZSt4moveIRlEONSt16remove_referenceIT_E4typeEOS2_(i64* noundef nonnull align 8 dereferenceable(8) %8) #3, !dbg !5193
  %10 = call noundef nonnull align 8 dereferenceable(48) %"class.std::map"* @_ZNSt8__detail9_Map_baseIlSt4pairIKlSt3mapIllSt4lessIlESaIS1_IS2_lEEEESaIS9_ENS_10_Select1stESt8equal_toIlESt4hashIlENS_18_Mod_range_hashingENS_20_Default_ranged_hashENS_20_Prime_rehash_policyENS_17_Hashtable_traitsILb0ELb0ELb1EEELb1EEixEOl(%"struct.std::__detail::_Map_base"* noundef nonnull align 1 dereferenceable(1) %7, i64* noundef nonnull align 8 dereferenceable(8) %9), !dbg !5191
  ret %"class.std::map"* %10, !dbg !5194
}

; Function Attrs: mustprogress noinline optnone uwtable
define linkonce_odr dso_local noundef nonnull align 8 dereferenceable(8) i64* @_ZNSt3mapIllSt4lessIlESaISt4pairIKllEEEixEOl(%"class.std::map"* noundef nonnull align 8 dereferenceable(48) %0, i64* noundef nonnull align 8 dereferenceable(8) %1) #4 comdat align 2 !dbg !5195 {
  %3 = alloca %"class.std::map"*, align 8
  %4 = alloca i64*, align 8
  %5 = alloca %"struct.std::_Rb_tree_iterator", align 8
  %6 = alloca %"struct.std::_Rb_tree_iterator", align 8
  %7 = alloca %"struct.std::less", align 1
  %8 = alloca %"struct.std::less", align 1
  %9 = alloca %"struct.std::_Rb_tree_iterator", align 8
  %10 = alloca %"struct.std::_Rb_tree_const_iterator", align 8
  %11 = alloca %"class.std::tuple", align 8
  %12 = alloca %"class.std::tuple.26", align 1
  store %"class.std::map"* %0, %"class.std::map"** %3, align 8
  call void @llvm.dbg.declare(metadata %"class.std::map"** %3, metadata !5196, metadata !DIExpression()), !dbg !5198
  store i64* %1, i64** %4, align 8
  call void @llvm.dbg.declare(metadata i64** %4, metadata !5199, metadata !DIExpression()), !dbg !5200
  %13 = load %"class.std::map"*, %"class.std::map"** %3, align 8
  call void @llvm.dbg.declare(metadata %"struct.std::_Rb_tree_iterator"* %5, metadata !5201, metadata !DIExpression()), !dbg !5202
  %14 = load i64*, i64** %4, align 8, !dbg !5203
  %15 = call %"struct.std::_Rb_tree_node_base"* @_ZNSt3mapIllSt4lessIlESaISt4pairIKllEEE11lower_boundERS3_(%"class.std::map"* noundef nonnull align 8 dereferenceable(48) %13, i64* noundef nonnull align 8 dereferenceable(8) %14), !dbg !5204
  %16 = getelementptr inbounds %"struct.std::_Rb_tree_iterator", %"struct.std::_Rb_tree_iterator"* %5, i32 0, i32 0, !dbg !5204
  store %"struct.std::_Rb_tree_node_base"* %15, %"struct.std::_Rb_tree_node_base"** %16, align 8, !dbg !5204
  %17 = call %"struct.std::_Rb_tree_node_base"* @_ZNSt3mapIllSt4lessIlESaISt4pairIKllEEE3endEv(%"class.std::map"* noundef nonnull align 8 dereferenceable(48) %13) #3, !dbg !5205
  %18 = getelementptr inbounds %"struct.std::_Rb_tree_iterator", %"struct.std::_Rb_tree_iterator"* %6, i32 0, i32 0, !dbg !5205
  store %"struct.std::_Rb_tree_node_base"* %17, %"struct.std::_Rb_tree_node_base"** %18, align 8, !dbg !5205
  %19 = call noundef zeroext i1 @_ZSteqRKSt17_Rb_tree_iteratorISt4pairIKllEES5_(%"struct.std::_Rb_tree_iterator"* noundef nonnull align 8 dereferenceable(8) %5, %"struct.std::_Rb_tree_iterator"* noundef nonnull align 8 dereferenceable(8) %6) #3, !dbg !5207
  br i1 %19, label %25, label %20, !dbg !5208

20:                                               ; preds = %2
  call void @_ZNKSt3mapIllSt4lessIlESaISt4pairIKllEEE8key_compEv(%"class.std::map"* noundef nonnull align 8 dereferenceable(48) %13), !dbg !5209
  %21 = load i64*, i64** %4, align 8, !dbg !5210
  %22 = call noundef nonnull align 8 dereferenceable(16) %"struct.std::pair.8"* @_ZNKSt17_Rb_tree_iteratorISt4pairIKllEEdeEv(%"struct.std::_Rb_tree_iterator"* noundef nonnull align 8 dereferenceable(8) %5) #3, !dbg !5211
  %23 = getelementptr inbounds %"struct.std::pair.8", %"struct.std::pair.8"* %22, i32 0, i32 0, !dbg !5212
  %24 = call noundef zeroext i1 @_ZNKSt4lessIlEclERKlS2_(%"struct.std::less"* noundef nonnull align 1 dereferenceable(1) %7, i64* noundef nonnull align 8 dereferenceable(8) %21, i64* noundef nonnull align 8 dereferenceable(8) %23), !dbg !5209
  br label %25, !dbg !5208

25:                                               ; preds = %20, %2
  %26 = phi i1 [ true, %2 ], [ %24, %20 ]
  br i1 %26, label %27, label %37, !dbg !5213

27:                                               ; preds = %25
  %28 = getelementptr inbounds %"class.std::map", %"class.std::map"* %13, i32 0, i32 0, !dbg !5214
  call void @_ZNSt23_Rb_tree_const_iteratorISt4pairIKllEEC2ERKSt17_Rb_tree_iteratorIS2_E(%"struct.std::_Rb_tree_const_iterator"* noundef nonnull align 8 dereferenceable(8) %10, %"struct.std::_Rb_tree_iterator"* noundef nonnull align 8 dereferenceable(8) %5) #3, !dbg !5215
  %29 = load i64*, i64** %4, align 8, !dbg !5216
  %30 = call noundef nonnull align 8 dereferenceable(8) i64* @_ZSt4moveIRlEONSt16remove_referenceIT_E4typeEOS2_(i64* noundef nonnull align 8 dereferenceable(8) %29) #3, !dbg !5217
  call void @_ZSt16forward_as_tupleIJlEESt5tupleIJDpOT_EES3_(%"class.std::tuple"* sret(%"class.std::tuple") align 8 %11, i64* noundef nonnull align 8 dereferenceable(8) %30) #3, !dbg !5218
  %31 = getelementptr inbounds %"struct.std::_Rb_tree_const_iterator", %"struct.std::_Rb_tree_const_iterator"* %10, i32 0, i32 0, !dbg !5219
  %32 = load %"struct.std::_Rb_tree_node_base"*, %"struct.std::_Rb_tree_node_base"** %31, align 8, !dbg !5219
  %33 = call %"struct.std::_Rb_tree_node_base"* @_ZNSt8_Rb_treeIlSt4pairIKllESt10_Select1stIS2_ESt4lessIlESaIS2_EE22_M_emplace_hint_uniqueIJRKSt21piecewise_construct_tSt5tupleIJOlEESD_IJEEEEESt17_Rb_tree_iteratorIS2_ESt23_Rb_tree_const_iteratorIS2_EDpOT_(%"class.std::_Rb_tree"* noundef nonnull align 8 dereferenceable(48) %28, %"struct.std::_Rb_tree_node_base"* %32, %"struct.std::piecewise_construct_t"* noundef nonnull align 1 dereferenceable(1) @_ZSt19piecewise_construct, %"class.std::tuple"* noundef nonnull align 8 dereferenceable(8) %11, %"class.std::tuple.26"* noundef nonnull align 1 dereferenceable(1) %12), !dbg !5219
  %34 = getelementptr inbounds %"struct.std::_Rb_tree_iterator", %"struct.std::_Rb_tree_iterator"* %9, i32 0, i32 0, !dbg !5219
  store %"struct.std::_Rb_tree_node_base"* %33, %"struct.std::_Rb_tree_node_base"** %34, align 8, !dbg !5219
  %35 = bitcast %"struct.std::_Rb_tree_iterator"* %5 to i8*, !dbg !5220
  %36 = bitcast %"struct.std::_Rb_tree_iterator"* %9 to i8*, !dbg !5220
  call void @llvm.memcpy.p0i8.p0i8.i64(i8* align 8 %35, i8* align 8 %36, i64 8, i1 false), !dbg !5220
  br label %37, !dbg !5221

37:                                               ; preds = %27, %25
  %38 = call noundef nonnull align 8 dereferenceable(16) %"struct.std::pair.8"* @_ZNKSt17_Rb_tree_iteratorISt4pairIKllEEdeEv(%"struct.std::_Rb_tree_iterator"* noundef nonnull align 8 dereferenceable(8) %5) #3, !dbg !5222
  %39 = getelementptr inbounds %"struct.std::pair.8", %"struct.std::pair.8"* %38, i32 0, i32 1, !dbg !5223
  ret i64* %39, !dbg !5224
}

; Function Attrs: mustprogress noinline optnone uwtable
define dso_local void @_ZNK11GraphEditor10writeGraphEv(%class.GraphEditor* noundef nonnull align 8 dereferenceable(82) %0) #4 align 2 personality i8* bitcast (i32 (...)* @__gxx_personality_v0 to i8*) !dbg !5225 {
  %2 = alloca %class.GraphEditor*, align 8
  %3 = alloca %"class.std::basic_ofstream", align 8
  %4 = alloca i8*, align 8
  %5 = alloca i32, align 4
  %6 = alloca i32, align 4
  %7 = alloca %"class.std::unordered_map"*, align 8
  %8 = alloca %"struct.std::__detail::_Node_const_iterator", align 8
  %9 = alloca %"struct.std::__detail::_Node_const_iterator", align 8
  %10 = alloca %"struct.std::pair"*, align 8
  %11 = alloca %"class.std::map"*, align 8
  %12 = alloca %"struct.std::_Rb_tree_const_iterator", align 8
  %13 = alloca %"struct.std::_Rb_tree_const_iterator", align 8
  %14 = alloca %"struct.std::pair.8"*, align 8
  %15 = alloca %class.anon, align 8
  %16 = alloca i64, align 8
  %17 = alloca i64, align 8
  store %class.GraphEditor* %0, %class.GraphEditor** %2, align 8
  call void @llvm.dbg.declare(metadata %class.GraphEditor** %2, metadata !5226, metadata !DIExpression()), !dbg !5228
  %18 = load %class.GraphEditor*, %class.GraphEditor** %2, align 8
  call void @llvm.dbg.declare(metadata %"class.std::basic_ofstream"* %3, metadata !5229, metadata !DIExpression()), !dbg !5234
  call void @_ZNSt14basic_ofstreamIcSt11char_traitsIcEEC1Ev(%"class.std::basic_ofstream"* noundef nonnull align 8 dereferenceable(248) %3), !dbg !5234
  invoke void @_ZNSt14basic_ofstreamIcSt11char_traitsIcEE4openEPKcSt13_Ios_Openmode(%"class.std::basic_ofstream"* noundef nonnull align 8 dereferenceable(248) %3, i8* noundef getelementptr inbounds ([10 x i8], [10 x i8]* @.str, i64 0, i64 0), i32 noundef 16)
          to label %19 unwind label %23, !dbg !5235

19:                                               ; preds = %1
  %20 = invoke noundef zeroext i1 @_ZNSt14basic_ofstreamIcSt11char_traitsIcEE7is_openEv(%"class.std::basic_ofstream"* noundef nonnull align 8 dereferenceable(248) %3)
          to label %21 unwind label %23, !dbg !5236

21:                                               ; preds = %19
  br i1 %20, label %27, label %22, !dbg !5238

22:                                               ; preds = %21
  store i32 1, i32* %6, align 4
  br label %97, !dbg !5239

23:                                               ; preds = %95, %87, %82, %80, %78, %75, %73, %70, %67, %62, %55, %19, %1
  %24 = landingpad { i8*, i32 }
          cleanup, !dbg !5240
  %25 = extractvalue { i8*, i32 } %24, 0, !dbg !5240
  store i8* %25, i8** %4, align 8, !dbg !5240
  %26 = extractvalue { i8*, i32 } %24, 1, !dbg !5240
  store i32 %26, i32* %5, align 4, !dbg !5240
  call void @_ZNSt14basic_ofstreamIcSt11char_traitsIcEED1Ev(%"class.std::basic_ofstream"* noundef nonnull align 8 dereferenceable(248) %3) #3, !dbg !5240
  br label %100, !dbg !5240

27:                                               ; preds = %21
  call void @llvm.dbg.declare(metadata %"class.std::unordered_map"** %7, metadata !5241, metadata !DIExpression()), !dbg !5243
  %28 = getelementptr inbounds %class.GraphEditor, %class.GraphEditor* %18, i32 0, i32 0, !dbg !5244
  store %"class.std::unordered_map"* %28, %"class.std::unordered_map"** %7, align 8, !dbg !5244
  call void @llvm.dbg.declare(metadata %"struct.std::__detail::_Node_const_iterator"* %8, metadata !5245, metadata !DIExpression()), !dbg !5243
  %29 = load %"class.std::unordered_map"*, %"class.std::unordered_map"** %7, align 8, !dbg !5246
  %30 = call %"struct.std::__detail::_Hash_node"* @_ZNKSt13unordered_mapIlSt3mapIllSt4lessIlESaISt4pairIKllEEESt4hashIlESt8equal_toIlESaIS3_IS4_S7_EEE5beginEv(%"class.std::unordered_map"* noundef nonnull align 8 dereferenceable(56) %29) #3, !dbg !5246
  %31 = getelementptr inbounds %"struct.std::__detail::_Node_const_iterator", %"struct.std::__detail::_Node_const_iterator"* %8, i32 0, i32 0, !dbg !5246
  %32 = getelementptr inbounds %"struct.std::__detail::_Node_iterator_base", %"struct.std::__detail::_Node_iterator_base"* %31, i32 0, i32 0, !dbg !5246
  store %"struct.std::__detail::_Hash_node"* %30, %"struct.std::__detail::_Hash_node"** %32, align 8, !dbg !5246
  call void @llvm.dbg.declare(metadata %"struct.std::__detail::_Node_const_iterator"* %9, metadata !5247, metadata !DIExpression()), !dbg !5243
  %33 = load %"class.std::unordered_map"*, %"class.std::unordered_map"** %7, align 8, !dbg !5246
  %34 = call %"struct.std::__detail::_Hash_node"* @_ZNKSt13unordered_mapIlSt3mapIllSt4lessIlESaISt4pairIKllEEESt4hashIlESt8equal_toIlESaIS3_IS4_S7_EEE3endEv(%"class.std::unordered_map"* noundef nonnull align 8 dereferenceable(56) %33) #3, !dbg !5246
  %35 = getelementptr inbounds %"struct.std::__detail::_Node_const_iterator", %"struct.std::__detail::_Node_const_iterator"* %9, i32 0, i32 0, !dbg !5246
  %36 = getelementptr inbounds %"struct.std::__detail::_Node_iterator_base", %"struct.std::__detail::_Node_iterator_base"* %35, i32 0, i32 0, !dbg !5246
  store %"struct.std::__detail::_Hash_node"* %34, %"struct.std::__detail::_Hash_node"** %36, align 8, !dbg !5246
  br label %37, !dbg !5246

37:                                               ; preds = %93, %27
  %38 = bitcast %"struct.std::__detail::_Node_const_iterator"* %8 to %"struct.std::__detail::_Node_iterator_base"*, !dbg !5246
  %39 = bitcast %"struct.std::__detail::_Node_const_iterator"* %9 to %"struct.std::__detail::_Node_iterator_base"*, !dbg !5246
  %40 = call noundef zeroext i1 @_ZNSt8__detaileqERKNS_19_Node_iterator_baseISt4pairIKlSt3mapIllSt4lessIlESaIS1_IS2_lEEEELb0EEESC_(%"struct.std::__detail::_Node_iterator_base"* noundef nonnull align 8 dereferenceable(8) %38, %"struct.std::__detail::_Node_iterator_base"* noundef nonnull align 8 dereferenceable(8) %39) #3, !dbg !5246
  %41 = xor i1 %40, true, !dbg !5246
  br i1 %41, label %42, label %95, !dbg !5246

42:                                               ; preds = %37
  call void @llvm.dbg.declare(metadata %"struct.std::pair"** %10, metadata !5248, metadata !DIExpression()), !dbg !5250
  %43 = call noundef nonnull align 8 dereferenceable(56) %"struct.std::pair"* @_ZNKSt8__detail20_Node_const_iteratorISt4pairIKlSt3mapIllSt4lessIlESaIS1_IS2_lEEEELb0ELb0EEdeEv(%"struct.std::__detail::_Node_const_iterator"* noundef nonnull align 8 dereferenceable(8) %8) #3, !dbg !5251
  store %"struct.std::pair"* %43, %"struct.std::pair"** %10, align 8, !dbg !5250
  call void @llvm.dbg.declare(metadata %"class.std::map"** %11, metadata !5252, metadata !DIExpression()), !dbg !5255
  %44 = load %"struct.std::pair"*, %"struct.std::pair"** %10, align 8, !dbg !5256
  %45 = getelementptr inbounds %"struct.std::pair", %"struct.std::pair"* %44, i32 0, i32 1, !dbg !5257
  store %"class.std::map"* %45, %"class.std::map"** %11, align 8, !dbg !5256
  call void @llvm.dbg.declare(metadata %"struct.std::_Rb_tree_const_iterator"* %12, metadata !5258, metadata !DIExpression()), !dbg !5255
  %46 = load %"class.std::map"*, %"class.std::map"** %11, align 8, !dbg !5259
  %47 = call %"struct.std::_Rb_tree_node_base"* @_ZNKSt3mapIllSt4lessIlESaISt4pairIKllEEE5beginEv(%"class.std::map"* noundef nonnull align 8 dereferenceable(48) %46) #3, !dbg !5259
  %48 = getelementptr inbounds %"struct.std::_Rb_tree_const_iterator", %"struct.std::_Rb_tree_const_iterator"* %12, i32 0, i32 0, !dbg !5259
  store %"struct.std::_Rb_tree_node_base"* %47, %"struct.std::_Rb_tree_node_base"** %48, align 8, !dbg !5259
  call void @llvm.dbg.declare(metadata %"struct.std::_Rb_tree_const_iterator"* %13, metadata !5260, metadata !DIExpression()), !dbg !5255
  %49 = load %"class.std::map"*, %"class.std::map"** %11, align 8, !dbg !5259
  %50 = call %"struct.std::_Rb_tree_node_base"* @_ZNKSt3mapIllSt4lessIlESaISt4pairIKllEEE3endEv(%"class.std::map"* noundef nonnull align 8 dereferenceable(48) %49) #3, !dbg !5259
  %51 = getelementptr inbounds %"struct.std::_Rb_tree_const_iterator", %"struct.std::_Rb_tree_const_iterator"* %13, i32 0, i32 0, !dbg !5259
  store %"struct.std::_Rb_tree_node_base"* %50, %"struct.std::_Rb_tree_node_base"** %51, align 8, !dbg !5259
  br label %52, !dbg !5259

52:                                               ; preds = %90, %42
  %53 = call noundef zeroext i1 @_ZSteqRKSt23_Rb_tree_const_iteratorISt4pairIKllEES5_(%"struct.std::_Rb_tree_const_iterator"* noundef nonnull align 8 dereferenceable(8) %12, %"struct.std::_Rb_tree_const_iterator"* noundef nonnull align 8 dereferenceable(8) %13) #3, !dbg !5259
  %54 = xor i1 %53, true, !dbg !5259
  br i1 %54, label %55, label %92, !dbg !5259

55:                                               ; preds = %52
  call void @llvm.dbg.declare(metadata %"struct.std::pair.8"** %14, metadata !5261, metadata !DIExpression()), !dbg !5263
  %56 = call noundef nonnull align 8 dereferenceable(16) %"struct.std::pair.8"* @_ZNKSt23_Rb_tree_const_iteratorISt4pairIKllEEdeEv(%"struct.std::_Rb_tree_const_iterator"* noundef nonnull align 8 dereferenceable(8) %12) #3, !dbg !5264
  store %"struct.std::pair.8"* %56, %"struct.std::pair.8"** %14, align 8, !dbg !5263
  call void @llvm.dbg.declare(metadata %class.anon* %15, metadata !5265, metadata !DIExpression()), !dbg !5270
  %57 = getelementptr inbounds %class.anon, %class.anon* %15, i32 0, i32 0, !dbg !5271
  store %class.GraphEditor* %18, %class.GraphEditor** %57, align 8, !dbg !5271
  call void @llvm.dbg.declare(metadata i64* %16, metadata !5272, metadata !DIExpression()), !dbg !5273
  %58 = load %"struct.std::pair"*, %"struct.std::pair"** %10, align 8, !dbg !5274
  %59 = getelementptr inbounds %"struct.std::pair", %"struct.std::pair"* %58, i32 0, i32 0, !dbg !5275
  %60 = load i64, i64* %59, align 8, !dbg !5275
  %61 = invoke noundef i64 @"_ZZNK11GraphEditor10writeGraphEvENK3$_0clEm"(%class.anon* noundef nonnull align 8 dereferenceable(8) %15, i64 noundef %60)
          to label %62 unwind label %23, !dbg !5276

62:                                               ; preds = %55
  store i64 %61, i64* %16, align 8, !dbg !5273
  call void @llvm.dbg.declare(metadata i64* %17, metadata !5277, metadata !DIExpression()), !dbg !5278
  %63 = load %"struct.std::pair.8"*, %"struct.std::pair.8"** %14, align 8, !dbg !5279
  %64 = getelementptr inbounds %"struct.std::pair.8", %"struct.std::pair.8"* %63, i32 0, i32 0, !dbg !5280
  %65 = load i64, i64* %64, align 8, !dbg !5280
  %66 = invoke noundef i64 @"_ZZNK11GraphEditor10writeGraphEvENK3$_0clEm"(%class.anon* noundef nonnull align 8 dereferenceable(8) %15, i64 noundef %65)
          to label %67 unwind label %23, !dbg !5281

67:                                               ; preds = %62
  store i64 %66, i64* %17, align 8, !dbg !5278
  %68 = bitcast %"class.std::basic_ofstream"* %3 to %"class.std::basic_ostream"*, !dbg !5282
  %69 = invoke noundef nonnull align 8 dereferenceable(8) %"class.std::basic_ostream"* @_ZNSolsEPFRSt8ios_baseS0_E(%"class.std::basic_ostream"* noundef nonnull align 8 dereferenceable(8) %68, %"class.std::ios_base"* (%"class.std::ios_base"*)* noundef @_ZSt3hexRSt8ios_base)
          to label %70 unwind label %23, !dbg !5283

70:                                               ; preds = %67
  %71 = load i64, i64* %16, align 8, !dbg !5284
  %72 = invoke noundef nonnull align 8 dereferenceable(8) %"class.std::basic_ostream"* @_ZNSolsEm(%"class.std::basic_ostream"* noundef nonnull align 8 dereferenceable(8) %69, i64 noundef %71)
          to label %73 unwind label %23, !dbg !5285

73:                                               ; preds = %70
  %74 = invoke noundef nonnull align 8 dereferenceable(8) %"class.std::basic_ostream"* @_ZStlsISt11char_traitsIcEERSt13basic_ostreamIcT_ES5_c(%"class.std::basic_ostream"* noundef nonnull align 8 dereferenceable(8) %72, i8 noundef signext 32)
          to label %75 unwind label %23, !dbg !5286

75:                                               ; preds = %73
  %76 = load i64, i64* %17, align 8, !dbg !5287
  %77 = invoke noundef nonnull align 8 dereferenceable(8) %"class.std::basic_ostream"* @_ZNSolsEm(%"class.std::basic_ostream"* noundef nonnull align 8 dereferenceable(8) %74, i64 noundef %76)
          to label %78 unwind label %23, !dbg !5288

78:                                               ; preds = %75
  %79 = invoke noundef nonnull align 8 dereferenceable(8) %"class.std::basic_ostream"* @_ZStlsISt11char_traitsIcEERSt13basic_ostreamIcT_ES5_c(%"class.std::basic_ostream"* noundef nonnull align 8 dereferenceable(8) %77, i8 noundef signext 32)
          to label %80 unwind label %23, !dbg !5289

80:                                               ; preds = %78
  %81 = invoke noundef nonnull align 8 dereferenceable(8) %"class.std::basic_ostream"* @_ZNSolsEPFRSt8ios_baseS0_E(%"class.std::basic_ostream"* noundef nonnull align 8 dereferenceable(8) %79, %"class.std::ios_base"* (%"class.std::ios_base"*)* noundef @_ZSt3decRSt8ios_base)
          to label %82 unwind label %23, !dbg !5290

82:                                               ; preds = %80
  %83 = load %"struct.std::pair.8"*, %"struct.std::pair.8"** %14, align 8, !dbg !5291
  %84 = getelementptr inbounds %"struct.std::pair.8", %"struct.std::pair.8"* %83, i32 0, i32 1, !dbg !5292
  %85 = load i64, i64* %84, align 8, !dbg !5292
  %86 = invoke noundef nonnull align 8 dereferenceable(8) %"class.std::basic_ostream"* @_ZNSolsEl(%"class.std::basic_ostream"* noundef nonnull align 8 dereferenceable(8) %81, i64 noundef %85)
          to label %87 unwind label %23, !dbg !5293

87:                                               ; preds = %82
  %88 = invoke noundef nonnull align 8 dereferenceable(8) %"class.std::basic_ostream"* @_ZStlsISt11char_traitsIcEERSt13basic_ostreamIcT_ES5_c(%"class.std::basic_ostream"* noundef nonnull align 8 dereferenceable(8) %86, i8 noundef signext 10)
          to label %89 unwind label %23, !dbg !5294

89:                                               ; preds = %87
  br label %90, !dbg !5295

90:                                               ; preds = %89
  %91 = call noundef nonnull align 8 dereferenceable(8) %"struct.std::_Rb_tree_const_iterator"* @_ZNSt23_Rb_tree_const_iteratorISt4pairIKllEEppEv(%"struct.std::_Rb_tree_const_iterator"* noundef nonnull align 8 dereferenceable(8) %12) #3, !dbg !5259
  br label %52, !dbg !5259, !llvm.loop !5296

92:                                               ; preds = %52
  br label %93, !dbg !5298

93:                                               ; preds = %92
  %94 = call noundef nonnull align 8 dereferenceable(8) %"struct.std::__detail::_Node_const_iterator"* @_ZNSt8__detail20_Node_const_iteratorISt4pairIKlSt3mapIllSt4lessIlESaIS1_IS2_lEEEELb0ELb0EEppEv(%"struct.std::__detail::_Node_const_iterator"* noundef nonnull align 8 dereferenceable(8) %8) #3, !dbg !5246
  br label %37, !dbg !5246, !llvm.loop !5299

95:                                               ; preds = %37
  invoke void @_ZNSt14basic_ofstreamIcSt11char_traitsIcEE5closeEv(%"class.std::basic_ofstream"* noundef nonnull align 8 dereferenceable(248) %3)
          to label %96 unwind label %23, !dbg !5301

96:                                               ; preds = %95
  store i32 0, i32* %6, align 4, !dbg !5240
  br label %97, !dbg !5240

97:                                               ; preds = %96, %22
  call void @_ZNSt14basic_ofstreamIcSt11char_traitsIcEED1Ev(%"class.std::basic_ofstream"* noundef nonnull align 8 dereferenceable(248) %3) #3, !dbg !5240
  %98 = load i32, i32* %6, align 4
  switch i32 %98, label %105 [
    i32 0, label %99
    i32 1, label %99
  ]

99:                                               ; preds = %97, %97
  ret void, !dbg !5240

100:                                              ; preds = %23
  %101 = load i8*, i8** %4, align 8, !dbg !5240
  %102 = load i32, i32* %5, align 4, !dbg !5240
  %103 = insertvalue { i8*, i32 } undef, i8* %101, 0, !dbg !5240
  %104 = insertvalue { i8*, i32 } %103, i32 %102, 1, !dbg !5240
  resume { i8*, i32 } %104, !dbg !5240

105:                                              ; preds = %97
  unreachable
}

declare void @_ZNSt14basic_ofstreamIcSt11char_traitsIcEEC1Ev(%"class.std::basic_ofstream"* noundef nonnull align 8 dereferenceable(248)) unnamed_addr #1

declare void @_ZNSt14basic_ofstreamIcSt11char_traitsIcEE4openEPKcSt13_Ios_Openmode(%"class.std::basic_ofstream"* noundef nonnull align 8 dereferenceable(248), i8* noundef, i32 noundef) #1

declare i32 @__gxx_personality_v0(...)

declare noundef zeroext i1 @_ZNSt14basic_ofstreamIcSt11char_traitsIcEE7is_openEv(%"class.std::basic_ofstream"* noundef nonnull align 8 dereferenceable(248)) #1

; Function Attrs: mustprogress noinline nounwind optnone uwtable
define linkonce_odr dso_local %"struct.std::__detail::_Hash_node"* @_ZNKSt13unordered_mapIlSt3mapIllSt4lessIlESaISt4pairIKllEEESt4hashIlESt8equal_toIlESaIS3_IS4_S7_EEE5beginEv(%"class.std::unordered_map"* noundef nonnull align 8 dereferenceable(56) %0) #6 comdat align 2 !dbg !5302 {
  %2 = alloca %"struct.std::__detail::_Node_const_iterator", align 8
  %3 = alloca %"class.std::unordered_map"*, align 8
  store %"class.std::unordered_map"* %0, %"class.std::unordered_map"** %3, align 8
  call void @llvm.dbg.declare(metadata %"class.std::unordered_map"** %3, metadata !5303, metadata !DIExpression()), !dbg !5305
  %4 = load %"class.std::unordered_map"*, %"class.std::unordered_map"** %3, align 8
  %5 = getelementptr inbounds %"class.std::unordered_map", %"class.std::unordered_map"* %4, i32 0, i32 0, !dbg !5306
  %6 = call %"struct.std::__detail::_Hash_node"* @_ZNKSt10_HashtableIlSt4pairIKlSt3mapIllSt4lessIlESaIS0_IS1_lEEEESaIS8_ENSt8__detail10_Select1stESt8equal_toIlESt4hashIlENSA_18_Mod_range_hashingENSA_20_Default_ranged_hashENSA_20_Prime_rehash_policyENSA_17_Hashtable_traitsILb0ELb0ELb1EEEE5beginEv(%"class.std::_Hashtable"* noundef nonnull align 8 dereferenceable(56) %5) #3, !dbg !5307
  %7 = getelementptr inbounds %"struct.std::__detail::_Node_const_iterator", %"struct.std::__detail::_Node_const_iterator"* %2, i32 0, i32 0, !dbg !5307
  %8 = getelementptr inbounds %"struct.std::__detail::_Node_iterator_base", %"struct.std::__detail::_Node_iterator_base"* %7, i32 0, i32 0, !dbg !5307
  store %"struct.std::__detail::_Hash_node"* %6, %"struct.std::__detail::_Hash_node"** %8, align 8, !dbg !5307
  %9 = getelementptr inbounds %"struct.std::__detail::_Node_const_iterator", %"struct.std::__detail::_Node_const_iterator"* %2, i32 0, i32 0, !dbg !5308
  %10 = getelementptr inbounds %"struct.std::__detail::_Node_iterator_base", %"struct.std::__detail::_Node_iterator_base"* %9, i32 0, i32 0, !dbg !5308
  %11 = load %"struct.std::__detail::_Hash_node"*, %"struct.std::__detail::_Hash_node"** %10, align 8, !dbg !5308
  ret %"struct.std::__detail::_Hash_node"* %11, !dbg !5308
}

; Function Attrs: mustprogress noinline nounwind optnone uwtable
define linkonce_odr dso_local %"struct.std::__detail::_Hash_node"* @_ZNKSt13unordered_mapIlSt3mapIllSt4lessIlESaISt4pairIKllEEESt4hashIlESt8equal_toIlESaIS3_IS4_S7_EEE3endEv(%"class.std::unordered_map"* noundef nonnull align 8 dereferenceable(56) %0) #6 comdat align 2 !dbg !5309 {
  %2 = alloca %"struct.std::__detail::_Node_const_iterator", align 8
  %3 = alloca %"class.std::unordered_map"*, align 8
  store %"class.std::unordered_map"* %0, %"class.std::unordered_map"** %3, align 8
  call void @llvm.dbg.declare(metadata %"class.std::unordered_map"** %3, metadata !5310, metadata !DIExpression()), !dbg !5311
  %4 = load %"class.std::unordered_map"*, %"class.std::unordered_map"** %3, align 8
  %5 = getelementptr inbounds %"class.std::unordered_map", %"class.std::unordered_map"* %4, i32 0, i32 0, !dbg !5312
  %6 = call %"struct.std::__detail::_Hash_node"* @_ZNKSt10_HashtableIlSt4pairIKlSt3mapIllSt4lessIlESaIS0_IS1_lEEEESaIS8_ENSt8__detail10_Select1stESt8equal_toIlESt4hashIlENSA_18_Mod_range_hashingENSA_20_Default_ranged_hashENSA_20_Prime_rehash_policyENSA_17_Hashtable_traitsILb0ELb0ELb1EEEE3endEv(%"class.std::_Hashtable"* noundef nonnull align 8 dereferenceable(56) %5) #3, !dbg !5313
  %7 = getelementptr inbounds %"struct.std::__detail::_Node_const_iterator", %"struct.std::__detail::_Node_const_iterator"* %2, i32 0, i32 0, !dbg !5313
  %8 = getelementptr inbounds %"struct.std::__detail::_Node_iterator_base", %"struct.std::__detail::_Node_iterator_base"* %7, i32 0, i32 0, !dbg !5313
  store %"struct.std::__detail::_Hash_node"* %6, %"struct.std::__detail::_Hash_node"** %8, align 8, !dbg !5313
  %9 = getelementptr inbounds %"struct.std::__detail::_Node_const_iterator", %"struct.std::__detail::_Node_const_iterator"* %2, i32 0, i32 0, !dbg !5314
  %10 = getelementptr inbounds %"struct.std::__detail::_Node_iterator_base", %"struct.std::__detail::_Node_iterator_base"* %9, i32 0, i32 0, !dbg !5314
  %11 = load %"struct.std::__detail::_Hash_node"*, %"struct.std::__detail::_Hash_node"** %10, align 8, !dbg !5314
  ret %"struct.std::__detail::_Hash_node"* %11, !dbg !5314
}

; Function Attrs: mustprogress noinline nounwind optnone uwtable
define linkonce_odr dso_local noundef zeroext i1 @_ZNSt8__detaileqERKNS_19_Node_iterator_baseISt4pairIKlSt3mapIllSt4lessIlESaIS1_IS2_lEEEELb0EEESC_(%"struct.std::__detail::_Node_iterator_base"* noundef nonnull align 8 dereferenceable(8) %0, %"struct.std::__detail::_Node_iterator_base"* noundef nonnull align 8 dereferenceable(8) %1) #6 comdat !dbg !5315 {
  %3 = alloca %"struct.std::__detail::_Node_iterator_base"*, align 8
  %4 = alloca %"struct.std::__detail::_Node_iterator_base"*, align 8
  store %"struct.std::__detail::_Node_iterator_base"* %0, %"struct.std::__detail::_Node_iterator_base"** %3, align 8
  call void @llvm.dbg.declare(metadata %"struct.std::__detail::_Node_iterator_base"** %3, metadata !5320, metadata !DIExpression()), !dbg !5321
  store %"struct.std::__detail::_Node_iterator_base"* %1, %"struct.std::__detail::_Node_iterator_base"** %4, align 8
  call void @llvm.dbg.declare(metadata %"struct.std::__detail::_Node_iterator_base"** %4, metadata !5322, metadata !DIExpression()), !dbg !5323
  %5 = load %"struct.std::__detail::_Node_iterator_base"*, %"struct.std::__detail::_Node_iterator_base"** %3, align 8, !dbg !5324
  %6 = getelementptr inbounds %"struct.std::__detail::_Node_iterator_base", %"struct.std::__detail::_Node_iterator_base"* %5, i32 0, i32 0, !dbg !5325
  %7 = load %"struct.std::__detail::_Hash_node"*, %"struct.std::__detail::_Hash_node"** %6, align 8, !dbg !5325
  %8 = load %"struct.std::__detail::_Node_iterator_base"*, %"struct.std::__detail::_Node_iterator_base"** %4, align 8, !dbg !5326
  %9 = getelementptr inbounds %"struct.std::__detail::_Node_iterator_base", %"struct.std::__detail::_Node_iterator_base"* %8, i32 0, i32 0, !dbg !5327
  %10 = load %"struct.std::__detail::_Hash_node"*, %"struct.std::__detail::_Hash_node"** %9, align 8, !dbg !5327
  %11 = icmp eq %"struct.std::__detail::_Hash_node"* %7, %10, !dbg !5328
  ret i1 %11, !dbg !5329
}

; Function Attrs: mustprogress noinline nounwind optnone uwtable
define linkonce_odr dso_local noundef nonnull align 8 dereferenceable(56) %"struct.std::pair"* @_ZNKSt8__detail20_Node_const_iteratorISt4pairIKlSt3mapIllSt4lessIlESaIS1_IS2_lEEEELb0ELb0EEdeEv(%"struct.std::__detail::_Node_const_iterator"* noundef nonnull align 8 dereferenceable(8) %0) #6 comdat align 2 !dbg !5330 {
  %2 = alloca %"struct.std::__detail::_Node_const_iterator"*, align 8
  store %"struct.std::__detail::_Node_const_iterator"* %0, %"struct.std::__detail::_Node_const_iterator"** %2, align 8
  call void @llvm.dbg.declare(metadata %"struct.std::__detail::_Node_const_iterator"** %2, metadata !5331, metadata !DIExpression()), !dbg !5333
  %3 = load %"struct.std::__detail::_Node_const_iterator"*, %"struct.std::__detail::_Node_const_iterator"** %2, align 8
  %4 = bitcast %"struct.std::__detail::_Node_const_iterator"* %3 to %"struct.std::__detail::_Node_iterator_base"*, !dbg !5334
  %5 = getelementptr inbounds %"struct.std::__detail::_Node_iterator_base", %"struct.std::__detail::_Node_iterator_base"* %4, i32 0, i32 0, !dbg !5334
  %6 = load %"struct.std::__detail::_Hash_node"*, %"struct.std::__detail::_Hash_node"** %5, align 8, !dbg !5334
  %7 = bitcast %"struct.std::__detail::_Hash_node"* %6 to i8*, !dbg !5335
  %8 = getelementptr inbounds i8, i8* %7, i64 8, !dbg !5335
  %9 = bitcast i8* %8 to %"struct.std::__detail::_Hash_node_value_base"*, !dbg !5335
  %10 = call noundef nonnull align 8 dereferenceable(56) %"struct.std::pair"* @_ZNSt8__detail21_Hash_node_value_baseISt4pairIKlSt3mapIllSt4lessIlESaIS1_IS2_lEEEEE4_M_vEv(%"struct.std::__detail::_Hash_node_value_base"* noundef nonnull align 8 dereferenceable(56) %9) #3, !dbg !5335
  ret %"struct.std::pair"* %10, !dbg !5336
}

; Function Attrs: mustprogress noinline nounwind optnone uwtable
define linkonce_odr dso_local %"struct.std::_Rb_tree_node_base"* @_ZNKSt3mapIllSt4lessIlESaISt4pairIKllEEE5beginEv(%"class.std::map"* noundef nonnull align 8 dereferenceable(48) %0) #6 comdat align 2 !dbg !5337 {
  %2 = alloca %"struct.std::_Rb_tree_const_iterator", align 8
  %3 = alloca %"class.std::map"*, align 8
  store %"class.std::map"* %0, %"class.std::map"** %3, align 8
  call void @llvm.dbg.declare(metadata %"class.std::map"** %3, metadata !5338, metadata !DIExpression()), !dbg !5340
  %4 = load %"class.std::map"*, %"class.std::map"** %3, align 8
  %5 = getelementptr inbounds %"class.std::map", %"class.std::map"* %4, i32 0, i32 0, !dbg !5341
  %6 = call %"struct.std::_Rb_tree_node_base"* @_ZNKSt8_Rb_treeIlSt4pairIKllESt10_Select1stIS2_ESt4lessIlESaIS2_EE5beginEv(%"class.std::_Rb_tree"* noundef nonnull align 8 dereferenceable(48) %5) #3, !dbg !5342
  %7 = getelementptr inbounds %"struct.std::_Rb_tree_const_iterator", %"struct.std::_Rb_tree_const_iterator"* %2, i32 0, i32 0, !dbg !5342
  store %"struct.std::_Rb_tree_node_base"* %6, %"struct.std::_Rb_tree_node_base"** %7, align 8, !dbg !5342
  %8 = getelementptr inbounds %"struct.std::_Rb_tree_const_iterator", %"struct.std::_Rb_tree_const_iterator"* %2, i32 0, i32 0, !dbg !5343
  %9 = load %"struct.std::_Rb_tree_node_base"*, %"struct.std::_Rb_tree_node_base"** %8, align 8, !dbg !5343
  ret %"struct.std::_Rb_tree_node_base"* %9, !dbg !5343
}

; Function Attrs: mustprogress noinline nounwind optnone uwtable
define linkonce_odr dso_local %"struct.std::_Rb_tree_node_base"* @_ZNKSt3mapIllSt4lessIlESaISt4pairIKllEEE3endEv(%"class.std::map"* noundef nonnull align 8 dereferenceable(48) %0) #6 comdat align 2 !dbg !5344 {
  %2 = alloca %"struct.std::_Rb_tree_const_iterator", align 8
  %3 = alloca %"class.std::map"*, align 8
  store %"class.std::map"* %0, %"class.std::map"** %3, align 8
  call void @llvm.dbg.declare(metadata %"class.std::map"** %3, metadata !5345, metadata !DIExpression()), !dbg !5346
  %4 = load %"class.std::map"*, %"class.std::map"** %3, align 8
  %5 = getelementptr inbounds %"class.std::map", %"class.std::map"* %4, i32 0, i32 0, !dbg !5347
  %6 = call %"struct.std::_Rb_tree_node_base"* @_ZNKSt8_Rb_treeIlSt4pairIKllESt10_Select1stIS2_ESt4lessIlESaIS2_EE3endEv(%"class.std::_Rb_tree"* noundef nonnull align 8 dereferenceable(48) %5) #3, !dbg !5348
  %7 = getelementptr inbounds %"struct.std::_Rb_tree_const_iterator", %"struct.std::_Rb_tree_const_iterator"* %2, i32 0, i32 0, !dbg !5348
  store %"struct.std::_Rb_tree_node_base"* %6, %"struct.std::_Rb_tree_node_base"** %7, align 8, !dbg !5348
  %8 = getelementptr inbounds %"struct.std::_Rb_tree_const_iterator", %"struct.std::_Rb_tree_const_iterator"* %2, i32 0, i32 0, !dbg !5349
  %9 = load %"struct.std::_Rb_tree_node_base"*, %"struct.std::_Rb_tree_node_base"** %8, align 8, !dbg !5349
  ret %"struct.std::_Rb_tree_node_base"* %9, !dbg !5349
}

; Function Attrs: mustprogress noinline nounwind optnone uwtable
define linkonce_odr dso_local noundef zeroext i1 @_ZSteqRKSt23_Rb_tree_const_iteratorISt4pairIKllEES5_(%"struct.std::_Rb_tree_const_iterator"* noundef nonnull align 8 dereferenceable(8) %0, %"struct.std::_Rb_tree_const_iterator"* noundef nonnull align 8 dereferenceable(8) %1) #6 comdat !dbg !5350 {
  %3 = alloca %"struct.std::_Rb_tree_const_iterator"*, align 8
  %4 = alloca %"struct.std::_Rb_tree_const_iterator"*, align 8
  store %"struct.std::_Rb_tree_const_iterator"* %0, %"struct.std::_Rb_tree_const_iterator"** %3, align 8
  call void @llvm.dbg.declare(metadata %"struct.std::_Rb_tree_const_iterator"** %3, metadata !5355, metadata !DIExpression()), !dbg !5356
  store %"struct.std::_Rb_tree_const_iterator"* %1, %"struct.std::_Rb_tree_const_iterator"** %4, align 8
  call void @llvm.dbg.declare(metadata %"struct.std::_Rb_tree_const_iterator"** %4, metadata !5357, metadata !DIExpression()), !dbg !5358
  %5 = load %"struct.std::_Rb_tree_const_iterator"*, %"struct.std::_Rb_tree_const_iterator"** %3, align 8, !dbg !5359
  %6 = getelementptr inbounds %"struct.std::_Rb_tree_const_iterator", %"struct.std::_Rb_tree_const_iterator"* %5, i32 0, i32 0, !dbg !5360
  %7 = load %"struct.std::_Rb_tree_node_base"*, %"struct.std::_Rb_tree_node_base"** %6, align 8, !dbg !5360
  %8 = load %"struct.std::_Rb_tree_const_iterator"*, %"struct.std::_Rb_tree_const_iterator"** %4, align 8, !dbg !5361
  %9 = getelementptr inbounds %"struct.std::_Rb_tree_const_iterator", %"struct.std::_Rb_tree_const_iterator"* %8, i32 0, i32 0, !dbg !5362
  %10 = load %"struct.std::_Rb_tree_node_base"*, %"struct.std::_Rb_tree_node_base"** %9, align 8, !dbg !5362
  %11 = icmp eq %"struct.std::_Rb_tree_node_base"* %7, %10, !dbg !5363
  ret i1 %11, !dbg !5364
}

; Function Attrs: mustprogress noinline nounwind optnone uwtable
define linkonce_odr dso_local noundef nonnull align 8 dereferenceable(16) %"struct.std::pair.8"* @_ZNKSt23_Rb_tree_const_iteratorISt4pairIKllEEdeEv(%"struct.std::_Rb_tree_const_iterator"* noundef nonnull align 8 dereferenceable(8) %0) #6 comdat align 2 !dbg !5365 {
  %2 = alloca %"struct.std::_Rb_tree_const_iterator"*, align 8
  store %"struct.std::_Rb_tree_const_iterator"* %0, %"struct.std::_Rb_tree_const_iterator"** %2, align 8
  call void @llvm.dbg.declare(metadata %"struct.std::_Rb_tree_const_iterator"** %2, metadata !5366, metadata !DIExpression()), !dbg !5368
  %3 = load %"struct.std::_Rb_tree_const_iterator"*, %"struct.std::_Rb_tree_const_iterator"** %2, align 8
  %4 = getelementptr inbounds %"struct.std::_Rb_tree_const_iterator", %"struct.std::_Rb_tree_const_iterator"* %3, i32 0, i32 0, !dbg !5369
  %5 = load %"struct.std::_Rb_tree_node_base"*, %"struct.std::_Rb_tree_node_base"** %4, align 8, !dbg !5369
  %6 = bitcast %"struct.std::_Rb_tree_node_base"* %5 to %"struct.std::_Rb_tree_node"*, !dbg !5370
  %7 = call noundef %"struct.std::pair.8"* @_ZNKSt13_Rb_tree_nodeISt4pairIKllEE9_M_valptrEv(%"struct.std::_Rb_tree_node"* noundef nonnull align 8 dereferenceable(48) %6), !dbg !5371
  ret %"struct.std::pair.8"* %7, !dbg !5372
}

; Function Attrs: mustprogress noinline nounwind optnone uwtable
define internal noundef i64 @"_ZZNK11GraphEditor10writeGraphEvENK3$_0clEm"(%class.anon* noundef nonnull align 8 dereferenceable(8) %0, i64 noundef %1) #6 align 2 !dbg !5373 {
  %3 = alloca %class.anon*, align 8
  %4 = alloca i64, align 8
  %5 = alloca %"class.std::optional.11", align 8
  store %class.anon* %0, %class.anon** %3, align 8
  call void @llvm.dbg.declare(metadata %class.anon** %3, metadata !5382, metadata !DIExpression()), !dbg !5384
  store i64 %1, i64* %4, align 8
  call void @llvm.dbg.declare(metadata i64* %4, metadata !5385, metadata !DIExpression()), !dbg !5386
  %6 = load %class.anon*, %class.anon** %3, align 8
  %7 = getelementptr inbounds %class.anon, %class.anon* %6, i32 0, i32 0
  %8 = load %class.GraphEditor*, %class.GraphEditor** %7, align 8
  call void @llvm.dbg.declare(metadata %"class.std::optional.11"* %5, metadata !5387, metadata !DIExpression()), !dbg !5389
  %9 = load i64, i64* %4, align 8, !dbg !5390
  call void @_ZNK11GraphEditor19findLowerBoundRangeEm(%"class.std::optional.11"* sret(%"class.std::optional.11") align 8 %5, %class.GraphEditor* noundef nonnull align 8 dereferenceable(82) %8, i64 noundef %9), !dbg !5391
  %10 = call noundef zeroext i1 @_ZNKSt8optionalISt5arrayImLm3EEEcvbEv(%"class.std::optional.11"* noundef nonnull align 8 dereferenceable(32) %5) #3, !dbg !5389
  br i1 %10, label %11, label %27, !dbg !5392

11:                                               ; preds = %2
  %12 = call noundef nonnull align 8 dereferenceable(24) %"struct.std::array"* @_ZNRSt8optionalISt5arrayImLm3EEEdeEv(%"class.std::optional.11"* noundef nonnull align 8 dereferenceable(32) %5) #3, !dbg !5393
  %13 = call noundef nonnull align 8 dereferenceable(8) i64* @_ZNSt5arrayImLm3EEixEm(%"struct.std::array"* noundef nonnull align 8 dereferenceable(24) %12, i64 noundef 0) #3, !dbg !5394
  %14 = load i64, i64* %13, align 8, !dbg !5394
  %15 = getelementptr inbounds %class.GraphEditor, %class.GraphEditor* %8, i32 0, i32 2, !dbg !5395
  %16 = call noundef nonnull align 1 dereferenceable(1) i8* @_ZNKRSt8optionalIbEdeEv(%"class.std::optional"* noundef nonnull align 1 dereferenceable(2) %15) #3, !dbg !5396
  %17 = load i8, i8* %16, align 1, !dbg !5396
  %18 = trunc i8 %17 to i1, !dbg !5396
  %19 = zext i1 %18 to i64, !dbg !5397
  %20 = mul i64 %14, %19, !dbg !5398
  %21 = call noundef nonnull align 8 dereferenceable(24) %"struct.std::array"* @_ZNRSt8optionalISt5arrayImLm3EEEdeEv(%"class.std::optional.11"* noundef nonnull align 8 dereferenceable(32) %5) #3, !dbg !5399
  %22 = call noundef nonnull align 8 dereferenceable(8) i64* @_ZNSt5arrayImLm3EEixEm(%"struct.std::array"* noundef nonnull align 8 dereferenceable(24) %21, i64 noundef 2) #3, !dbg !5400
  %23 = load i64, i64* %22, align 8, !dbg !5400
  %24 = sub i64 %20, %23, !dbg !5401
  %25 = load i64, i64* %4, align 8, !dbg !5402
  %26 = sub i64 %25, %24, !dbg !5402
  store i64 %26, i64* %4, align 8, !dbg !5402
  br label %27, !dbg !5403

27:                                               ; preds = %11, %2
  %28 = load i64, i64* %4, align 8, !dbg !5404
  ret i64 %28, !dbg !5405
}

declare noundef nonnull align 8 dereferenceable(8) %"class.std::basic_ostream"* @_ZStlsISt11char_traitsIcEERSt13basic_ostreamIcT_ES5_c(%"class.std::basic_ostream"* noundef nonnull align 8 dereferenceable(8), i8 noundef signext) #1

declare noundef nonnull align 8 dereferenceable(8) %"class.std::basic_ostream"* @_ZNSolsEPFRSt8ios_baseS0_E(%"class.std::basic_ostream"* noundef nonnull align 8 dereferenceable(8), %"class.std::ios_base"* (%"class.std::ios_base"*)* noundef) #1

; Function Attrs: mustprogress noinline optnone uwtable
define linkonce_odr dso_local noundef nonnull align 8 dereferenceable(216) %"class.std::ios_base"* @_ZSt3hexRSt8ios_base(%"class.std::ios_base"* noundef nonnull align 8 dereferenceable(216) %0) #4 comdat !dbg !5406 {
  %2 = alloca %"class.std::ios_base"*, align 8
  store %"class.std::ios_base"* %0, %"class.std::ios_base"** %2, align 8
  call void @llvm.dbg.declare(metadata %"class.std::ios_base"** %2, metadata !5410, metadata !DIExpression()), !dbg !5411
  %3 = load %"class.std::ios_base"*, %"class.std::ios_base"** %2, align 8, !dbg !5412
  %4 = call noundef i32 @_ZNSt8ios_base4setfESt13_Ios_FmtflagsS0_(%"class.std::ios_base"* noundef nonnull align 8 dereferenceable(216) %3, i32 noundef 8, i32 noundef 74), !dbg !5413
  %5 = load %"class.std::ios_base"*, %"class.std::ios_base"** %2, align 8, !dbg !5414
  ret %"class.std::ios_base"* %5, !dbg !5415
}

declare noundef nonnull align 8 dereferenceable(8) %"class.std::basic_ostream"* @_ZNSolsEm(%"class.std::basic_ostream"* noundef nonnull align 8 dereferenceable(8), i64 noundef) #1

; Function Attrs: mustprogress noinline optnone uwtable
define linkonce_odr dso_local noundef nonnull align 8 dereferenceable(216) %"class.std::ios_base"* @_ZSt3decRSt8ios_base(%"class.std::ios_base"* noundef nonnull align 8 dereferenceable(216) %0) #4 comdat !dbg !5416 {
  %2 = alloca %"class.std::ios_base"*, align 8
  store %"class.std::ios_base"* %0, %"class.std::ios_base"** %2, align 8
  call void @llvm.dbg.declare(metadata %"class.std::ios_base"** %2, metadata !5417, metadata !DIExpression()), !dbg !5418
  %3 = load %"class.std::ios_base"*, %"class.std::ios_base"** %2, align 8, !dbg !5419
  %4 = call noundef i32 @_ZNSt8ios_base4setfESt13_Ios_FmtflagsS0_(%"class.std::ios_base"* noundef nonnull align 8 dereferenceable(216) %3, i32 noundef 2, i32 noundef 74), !dbg !5420
  %5 = load %"class.std::ios_base"*, %"class.std::ios_base"** %2, align 8, !dbg !5421
  ret %"class.std::ios_base"* %5, !dbg !5422
}

declare noundef nonnull align 8 dereferenceable(8) %"class.std::basic_ostream"* @_ZNSolsEl(%"class.std::basic_ostream"* noundef nonnull align 8 dereferenceable(8), i64 noundef) #1

; Function Attrs: mustprogress noinline nounwind optnone uwtable
define linkonce_odr dso_local noundef nonnull align 8 dereferenceable(8) %"struct.std::_Rb_tree_const_iterator"* @_ZNSt23_Rb_tree_const_iteratorISt4pairIKllEEppEv(%"struct.std::_Rb_tree_const_iterator"* noundef nonnull align 8 dereferenceable(8) %0) #6 comdat align 2 !dbg !5423 {
  %2 = alloca %"struct.std::_Rb_tree_const_iterator"*, align 8
  store %"struct.std::_Rb_tree_const_iterator"* %0, %"struct.std::_Rb_tree_const_iterator"** %2, align 8
  call void @llvm.dbg.declare(metadata %"struct.std::_Rb_tree_const_iterator"** %2, metadata !5424, metadata !DIExpression()), !dbg !5426
  %3 = load %"struct.std::_Rb_tree_const_iterator"*, %"struct.std::_Rb_tree_const_iterator"** %2, align 8
  %4 = getelementptr inbounds %"struct.std::_Rb_tree_const_iterator", %"struct.std::_Rb_tree_const_iterator"* %3, i32 0, i32 0, !dbg !5427
  %5 = load %"struct.std::_Rb_tree_node_base"*, %"struct.std::_Rb_tree_node_base"** %4, align 8, !dbg !5427
  %6 = call noundef %"struct.std::_Rb_tree_node_base"* @_ZSt18_Rb_tree_incrementPKSt18_Rb_tree_node_base(%"struct.std::_Rb_tree_node_base"* noundef %5) #17, !dbg !5428
  %7 = getelementptr inbounds %"struct.std::_Rb_tree_const_iterator", %"struct.std::_Rb_tree_const_iterator"* %3, i32 0, i32 0, !dbg !5429
  store %"struct.std::_Rb_tree_node_base"* %6, %"struct.std::_Rb_tree_node_base"** %7, align 8, !dbg !5430
  ret %"struct.std::_Rb_tree_const_iterator"* %3, !dbg !5431
}

; Function Attrs: mustprogress noinline nounwind optnone uwtable
define linkonce_odr dso_local noundef nonnull align 8 dereferenceable(8) %"struct.std::__detail::_Node_const_iterator"* @_ZNSt8__detail20_Node_const_iteratorISt4pairIKlSt3mapIllSt4lessIlESaIS1_IS2_lEEEELb0ELb0EEppEv(%"struct.std::__detail::_Node_const_iterator"* noundef nonnull align 8 dereferenceable(8) %0) #6 comdat align 2 !dbg !5432 {
  %2 = alloca %"struct.std::__detail::_Node_const_iterator"*, align 8
  store %"struct.std::__detail::_Node_const_iterator"* %0, %"struct.std::__detail::_Node_const_iterator"** %2, align 8
  call void @llvm.dbg.declare(metadata %"struct.std::__detail::_Node_const_iterator"** %2, metadata !5433, metadata !DIExpression()), !dbg !5435
  %3 = load %"struct.std::__detail::_Node_const_iterator"*, %"struct.std::__detail::_Node_const_iterator"** %2, align 8
  %4 = bitcast %"struct.std::__detail::_Node_const_iterator"* %3 to %"struct.std::__detail::_Node_iterator_base"*, !dbg !5436
  call void @_ZNSt8__detail19_Node_iterator_baseISt4pairIKlSt3mapIllSt4lessIlESaIS1_IS2_lEEEELb0EE7_M_incrEv(%"struct.std::__detail::_Node_iterator_base"* noundef nonnull align 8 dereferenceable(8) %4) #3, !dbg !5436
  ret %"struct.std::__detail::_Node_const_iterator"* %3, !dbg !5437
}

declare void @_ZNSt14basic_ofstreamIcSt11char_traitsIcEE5closeEv(%"class.std::basic_ofstream"* noundef nonnull align 8 dereferenceable(248)) #1

; Function Attrs: nounwind
declare void @_ZNSt14basic_ofstreamIcSt11char_traitsIcEED1Ev(%"class.std::basic_ofstream"* noundef nonnull align 8 dereferenceable(248)) unnamed_addr #2

; Function Attrs: mustprogress noinline optnone uwtable
define dso_local void @_ZN11GraphEditor13parseMapsFileEv(%class.GraphEditor* noundef nonnull align 8 dereferenceable(82) %0) #4 align 2 !dbg !5438 {
  %2 = alloca %class.GraphEditor*, align 8
  %3 = alloca %struct._IO_FILE*, align 8
  %4 = alloca %"struct.std::array", align 8
  %5 = alloca i8*, align 8
  %6 = alloca i8*, align 8
  %7 = alloca %"class.std::optional", align 1
  %8 = alloca i8, align 1
  store %class.GraphEditor* %0, %class.GraphEditor** %2, align 8
  call void @llvm.dbg.declare(metadata %class.GraphEditor** %2, metadata !5439, metadata !DIExpression()), !dbg !5440
  %9 = load %class.GraphEditor*, %class.GraphEditor** %2, align 8
  call void @llvm.dbg.declare(metadata %struct._IO_FILE** %3, metadata !5441, metadata !DIExpression()), !dbg !5442
  %10 = call noalias %struct._IO_FILE* @fopen(i8* noundef getelementptr inbounds ([9 x i8], [9 x i8]* @.str.1, i64 0, i64 0), i8* noundef getelementptr inbounds ([2 x i8], [2 x i8]* @.str.2, i64 0, i64 0)), !dbg !5443
  store %struct._IO_FILE* %10, %struct._IO_FILE** %3, align 8, !dbg !5442
  %11 = load %struct._IO_FILE*, %struct._IO_FILE** %3, align 8, !dbg !5444
  %12 = icmp ne %struct._IO_FILE* %11, null, !dbg !5444
  br i1 %12, label %14, label %13, !dbg !5446

13:                                               ; preds = %1
  br label %55, !dbg !5447

14:                                               ; preds = %1
  call void @llvm.dbg.declare(metadata %"struct.std::array"* %4, metadata !5448, metadata !DIExpression()), !dbg !5449
  call void @llvm.dbg.declare(metadata i8** %5, metadata !5450, metadata !DIExpression()), !dbg !5451
  %15 = call noalias noundef nonnull i8* @_Znam(i64 noundef 32) #18, !dbg !5452, !heapallocsite !2970
  store i8* %15, i8** %5, align 8, !dbg !5451
  call void @llvm.dbg.declare(metadata i8** %6, metadata !5453, metadata !DIExpression()), !dbg !5454
  %16 = call noalias noundef nonnull i8* @_Znam(i64 noundef 256) #18, !dbg !5455, !heapallocsite !2970
  store i8* %16, i8** %6, align 8, !dbg !5454
  br label %17, !dbg !5456

17:                                               ; preds = %43, %14
  %18 = load %struct._IO_FILE*, %struct._IO_FILE** %3, align 8, !dbg !5457
  %19 = call noundef nonnull align 8 dereferenceable(8) i64* @_ZNSt5arrayImLm3EEixEm(%"struct.std::array"* noundef nonnull align 8 dereferenceable(24) %4, i64 noundef 0) #3, !dbg !5459
  %20 = call noundef nonnull align 8 dereferenceable(8) i64* @_ZNSt5arrayImLm3EEixEm(%"struct.std::array"* noundef nonnull align 8 dereferenceable(24) %4, i64 noundef 1) #3, !dbg !5460
  %21 = load i8*, i8** %5, align 8, !dbg !5461
  %22 = call noundef nonnull align 8 dereferenceable(8) i64* @_ZNSt5arrayImLm3EEixEm(%"struct.std::array"* noundef nonnull align 8 dereferenceable(24) %4, i64 noundef 2) #3, !dbg !5462
  %23 = load i8*, i8** %6, align 8, !dbg !5463
  %24 = call i32 (%struct._IO_FILE*, i8*, ...) @__isoc99_fscanf(%struct._IO_FILE* noundef %18, i8* noundef getelementptr inbounds ([32 x i8], [32 x i8]* @.str.3, i64 0, i64 0), i64* noundef %19, i64* noundef %20, i8* noundef %21, i64* noundef %22, i8* noundef %23), !dbg !5464
  %25 = getelementptr inbounds %class.GraphEditor, %class.GraphEditor* %9, i32 0, i32 2, !dbg !5465
  %26 = call noundef zeroext i1 @_ZNKSt8optionalIbEcvbEv(%"class.std::optional"* noundef nonnull align 1 dereferenceable(2) %25) #3, !dbg !5465
  br i1 %26, label %34, label %27, !dbg !5467

27:                                               ; preds = %17
  %28 = load i8*, i8** %6, align 8, !dbg !5468
  %29 = call noundef zeroext i1 @_Z5isPICPKc(i8* noundef %28), !dbg !5469
  %30 = zext i1 %29 to i8, !dbg !5469
  store i8 %30, i8* %8, align 1, !dbg !5469
  call void @_ZNSt8optionalIbEC2IbLb1EEEOT_(%"class.std::optional"* noundef nonnull align 1 dereferenceable(2) %7, i8* noundef nonnull align 1 dereferenceable(1) %8) #3, !dbg !5469
  %31 = getelementptr inbounds %class.GraphEditor, %class.GraphEditor* %9, i32 0, i32 2, !dbg !5470
  %32 = bitcast %"class.std::optional"* %31 to i8*, !dbg !5471
  %33 = bitcast %"class.std::optional"* %7 to i8*, !dbg !5471
  call void @llvm.memcpy.p0i8.p0i8.i64(i8* align 8 %32, i8* align 1 %33, i64 2, i1 false), !dbg !5471
  br label %34, !dbg !5470

34:                                               ; preds = %27, %17
  %35 = load %struct._IO_FILE*, %struct._IO_FILE** @stderr, align 8, !dbg !5472
  %36 = getelementptr inbounds %class.GraphEditor, %class.GraphEditor* %9, i32 0, i32 2, !dbg !5473
  %37 = call noundef nonnull align 1 dereferenceable(1) i8* @_ZNRSt8optionalIbEdeEv(%"class.std::optional"* noundef nonnull align 1 dereferenceable(2) %36) #3, !dbg !5474
  %38 = load i8, i8* %37, align 1, !dbg !5474
  %39 = trunc i8 %38 to i1, !dbg !5474
  %40 = zext i1 %39 to i32, !dbg !5474
  %41 = call i32 (%struct._IO_FILE*, i8*, ...) @fprintf(%struct._IO_FILE* noundef %35, i8* noundef getelementptr inbounds ([12 x i8], [12 x i8]* @.str.4, i64 0, i64 0), i32 noundef %40), !dbg !5475
  %42 = getelementptr inbounds %class.GraphEditor, %class.GraphEditor* %9, i32 0, i32 1, !dbg !5476
  call void @_ZNSt6vectorISt5arrayImLm3EESaIS1_EE9push_backERKS1_(%"class.std::vector"* noundef nonnull align 8 dereferenceable(24) %42, %"struct.std::array"* noundef nonnull align 8 dereferenceable(24) %4), !dbg !5477
  br label %43, !dbg !5478

43:                                               ; preds = %34
  %44 = load i8*, i8** %6, align 8, !dbg !5479
  %45 = call i32 @strcmp(i8* noundef %44, i8* noundef getelementptr inbounds ([7 x i8], [7 x i8]* @.str.5, i64 0, i64 0)) #17, !dbg !5480
  %46 = icmp ne i32 %45, 0, !dbg !5480
  br i1 %46, label %17, label %47, !dbg !5478, !llvm.loop !5481

47:                                               ; preds = %43
  %48 = load i8*, i8** %5, align 8, !dbg !5484
  %49 = icmp eq i8* %48, null, !dbg !5485
  br i1 %49, label %51, label %50, !dbg !5485

50:                                               ; preds = %47
  call void @_ZdaPv(i8* noundef %48) #19, !dbg !5485
  br label %51, !dbg !5485

51:                                               ; preds = %50, %47
  %52 = load i8*, i8** %6, align 8, !dbg !5486
  %53 = icmp eq i8* %52, null, !dbg !5487
  br i1 %53, label %55, label %54, !dbg !5487

54:                                               ; preds = %51
  call void @_ZdaPv(i8* noundef %52) #19, !dbg !5487
  br label %55, !dbg !5487

55:                                               ; preds = %13, %54, %51
  ret void, !dbg !5488
}

declare noalias %struct._IO_FILE* @fopen(i8* noundef, i8* noundef) #1

; Function Attrs: nobuiltin allocsize(0)
declare noundef nonnull i8* @_Znam(i64 noundef) #7

declare i32 @__isoc99_fscanf(%struct._IO_FILE* noundef, i8* noundef, ...) #1

; Function Attrs: mustprogress noinline nounwind optnone uwtable
define linkonce_odr dso_local noundef nonnull align 8 dereferenceable(8) i64* @_ZNSt5arrayImLm3EEixEm(%"struct.std::array"* noundef nonnull align 8 dereferenceable(24) %0, i64 noundef %1) #6 comdat align 2 !dbg !5489 {
  %3 = alloca %"struct.std::array"*, align 8
  %4 = alloca i64, align 8
  store %"struct.std::array"* %0, %"struct.std::array"** %3, align 8
  call void @llvm.dbg.declare(metadata %"struct.std::array"** %3, metadata !5490, metadata !DIExpression()), !dbg !5491
  store i64 %1, i64* %4, align 8
  call void @llvm.dbg.declare(metadata i64* %4, metadata !5492, metadata !DIExpression()), !dbg !5493
  %5 = load %"struct.std::array"*, %"struct.std::array"** %3, align 8
  %6 = getelementptr inbounds %"struct.std::array", %"struct.std::array"* %5, i32 0, i32 0, !dbg !5494
  %7 = load i64, i64* %4, align 8, !dbg !5495
  %8 = call noundef nonnull align 8 dereferenceable(8) i64* @_ZNSt14__array_traitsImLm3EE6_S_refERA3_Kmm([3 x i64]* noundef nonnull align 8 dereferenceable(24) %6, i64 noundef %7) #3, !dbg !5496
  ret i64* %8, !dbg !5497
}

; Function Attrs: mustprogress noinline nounwind optnone uwtable
define linkonce_odr dso_local noundef zeroext i1 @_ZNKSt8optionalIbEcvbEv(%"class.std::optional"* noundef nonnull align 1 dereferenceable(2) %0) #6 comdat align 2 !dbg !5498 {
  %2 = alloca %"class.std::optional"*, align 8
  store %"class.std::optional"* %0, %"class.std::optional"** %2, align 8
  call void @llvm.dbg.declare(metadata %"class.std::optional"** %2, metadata !5499, metadata !DIExpression()), !dbg !5501
  %3 = load %"class.std::optional"*, %"class.std::optional"** %2, align 8
  %4 = bitcast %"class.std::optional"* %3 to %"class.std::_Optional_base_impl"*, !dbg !5502
  %5 = call noundef zeroext i1 @_ZNKSt19_Optional_base_implIbSt14_Optional_baseIbLb1ELb1EEE13_M_is_engagedEv(%"class.std::_Optional_base_impl"* noundef nonnull align 1 dereferenceable(1) %4) #3, !dbg !5502
  ret i1 %5, !dbg !5503
}

declare noundef zeroext i1 @_Z5isPICPKc(i8* noundef) #1

; Function Attrs: noinline nounwind optnone uwtable
define linkonce_odr dso_local void @_ZNSt8optionalIbEC2IbLb1EEEOT_(%"class.std::optional"* noundef nonnull align 1 dereferenceable(2) %0, i8* noundef nonnull align 1 dereferenceable(1) %1) unnamed_addr #8 comdat align 2 personality i8* bitcast (i32 (...)* @__gxx_personality_v0 to i8*) !dbg !5504 {
  %3 = alloca %"class.std::optional"*, align 8
  %4 = alloca i8*, align 8
  %5 = alloca %"struct.std::in_place_t", align 1
  store %"class.std::optional"* %0, %"class.std::optional"** %3, align 8
  call void @llvm.dbg.declare(metadata %"class.std::optional"** %3, metadata !5510, metadata !DIExpression()), !dbg !5512
  store i8* %1, i8** %4, align 8
  call void @llvm.dbg.declare(metadata i8** %4, metadata !5513, metadata !DIExpression()), !dbg !5514
  %6 = load %"class.std::optional"*, %"class.std::optional"** %3, align 8
  %7 = bitcast %"class.std::optional"* %6 to %"struct.std::_Optional_base"*, !dbg !5515
  %8 = load i8*, i8** %4, align 8, !dbg !5516
  %9 = call noundef nonnull align 1 dereferenceable(1) i8* @_ZSt7forwardIbEOT_RNSt16remove_referenceIS0_E4typeE(i8* noundef nonnull align 1 dereferenceable(1) %8) #3, !dbg !5517
  invoke void @_ZNSt14_Optional_baseIbLb1ELb1EEC2IJbELb0EEESt10in_place_tDpOT_(%"struct.std::_Optional_base"* noundef nonnull align 1 dereferenceable(2) %7, i8* noundef nonnull align 1 dereferenceable(1) %9)
          to label %10 unwind label %12, !dbg !5518

10:                                               ; preds = %2
  %11 = bitcast %"class.std::optional"* %6 to %"struct.std::_Enable_copy_move"*, !dbg !5515
  ret void, !dbg !5519

12:                                               ; preds = %2
  %13 = landingpad { i8*, i32 }
          catch i8* null, !dbg !5518
  %14 = extractvalue { i8*, i32 } %13, 0, !dbg !5518
  call void @__clang_call_terminate(i8* %14) #20, !dbg !5518
  unreachable, !dbg !5518
}

; Function Attrs: argmemonly nofree nounwind willreturn
declare void @llvm.memcpy.p0i8.p0i8.i64(i8* noalias nocapture writeonly, i8* noalias nocapture readonly, i64, i1 immarg) #9

declare i32 @fprintf(%struct._IO_FILE* noundef, i8* noundef, ...) #1

; Function Attrs: mustprogress noinline nounwind optnone uwtable
define linkonce_odr dso_local noundef nonnull align 1 dereferenceable(1) i8* @_ZNRSt8optionalIbEdeEv(%"class.std::optional"* noundef nonnull align 1 dereferenceable(2) %0) #6 comdat align 2 !dbg !5520 {
  %2 = alloca %"class.std::optional"*, align 8
  store %"class.std::optional"* %0, %"class.std::optional"** %2, align 8
  call void @llvm.dbg.declare(metadata %"class.std::optional"** %2, metadata !5521, metadata !DIExpression()), !dbg !5522
  %3 = load %"class.std::optional"*, %"class.std::optional"** %2, align 8
  %4 = bitcast %"class.std::optional"* %3 to %"class.std::_Optional_base_impl"*, !dbg !5523
  %5 = call noundef nonnull align 1 dereferenceable(1) i8* @_ZNSt19_Optional_base_implIbSt14_Optional_baseIbLb1ELb1EEE6_M_getEv(%"class.std::_Optional_base_impl"* noundef nonnull align 1 dereferenceable(1) %4) #3, !dbg !5523
  ret i8* %5, !dbg !5524
}

; Function Attrs: mustprogress noinline optnone uwtable
define linkonce_odr dso_local void @_ZNSt6vectorISt5arrayImLm3EESaIS1_EE9push_backERKS1_(%"class.std::vector"* noundef nonnull align 8 dereferenceable(24) %0, %"struct.std::array"* noundef nonnull align 8 dereferenceable(24) %1) #4 comdat align 2 !dbg !5525 {
  %3 = alloca %"class.std::vector"*, align 8
  %4 = alloca %"struct.std::array"*, align 8
  %5 = alloca %"class.__gnu_cxx::__normal_iterator.34", align 8
  store %"class.std::vector"* %0, %"class.std::vector"** %3, align 8
  call void @llvm.dbg.declare(metadata %"class.std::vector"** %3, metadata !5526, metadata !DIExpression()), !dbg !5528
  store %"struct.std::array"* %1, %"struct.std::array"** %4, align 8
  call void @llvm.dbg.declare(metadata %"struct.std::array"** %4, metadata !5529, metadata !DIExpression()), !dbg !5530
  %6 = load %"class.std::vector"*, %"class.std::vector"** %3, align 8
  %7 = bitcast %"class.std::vector"* %6 to %"struct.std::_Vector_base"*, !dbg !5531
  %8 = getelementptr inbounds %"struct.std::_Vector_base", %"struct.std::_Vector_base"* %7, i32 0, i32 0, !dbg !5531
  %9 = bitcast %"struct.std::_Vector_base<std::array<unsigned long, 3>, std::allocator<std::array<unsigned long, 3>>>::_Vector_impl"* %8 to %"struct.std::_Vector_base<std::array<unsigned long, 3>, std::allocator<std::array<unsigned long, 3>>>::_Vector_impl_data"*, !dbg !5533
  %10 = getelementptr inbounds %"struct.std::_Vector_base<std::array<unsigned long, 3>, std::allocator<std::array<unsigned long, 3>>>::_Vector_impl_data", %"struct.std::_Vector_base<std::array<unsigned long, 3>, std::allocator<std::array<unsigned long, 3>>>::_Vector_impl_data"* %9, i32 0, i32 1, !dbg !5534
  %11 = load %"struct.std::array"*, %"struct.std::array"** %10, align 8, !dbg !5534
  %12 = bitcast %"class.std::vector"* %6 to %"struct.std::_Vector_base"*, !dbg !5535
  %13 = getelementptr inbounds %"struct.std::_Vector_base", %"struct.std::_Vector_base"* %12, i32 0, i32 0, !dbg !5535
  %14 = bitcast %"struct.std::_Vector_base<std::array<unsigned long, 3>, std::allocator<std::array<unsigned long, 3>>>::_Vector_impl"* %13 to %"struct.std::_Vector_base<std::array<unsigned long, 3>, std::allocator<std::array<unsigned long, 3>>>::_Vector_impl_data"*, !dbg !5536
  %15 = getelementptr inbounds %"struct.std::_Vector_base<std::array<unsigned long, 3>, std::allocator<std::array<unsigned long, 3>>>::_Vector_impl_data", %"struct.std::_Vector_base<std::array<unsigned long, 3>, std::allocator<std::array<unsigned long, 3>>>::_Vector_impl_data"* %14, i32 0, i32 2, !dbg !5537
  %16 = load %"struct.std::array"*, %"struct.std::array"** %15, align 8, !dbg !5537
  %17 = icmp ne %"struct.std::array"* %11, %16, !dbg !5538
  br i1 %17, label %18, label %34, !dbg !5539

18:                                               ; preds = %2
  %19 = bitcast %"class.std::vector"* %6 to %"struct.std::_Vector_base"*, !dbg !5540
  %20 = getelementptr inbounds %"struct.std::_Vector_base", %"struct.std::_Vector_base"* %19, i32 0, i32 0, !dbg !5540
  %21 = bitcast %"struct.std::_Vector_base<std::array<unsigned long, 3>, std::allocator<std::array<unsigned long, 3>>>::_Vector_impl"* %20 to %"class.std::allocator.2"*, !dbg !5542
  %22 = bitcast %"class.std::vector"* %6 to %"struct.std::_Vector_base"*, !dbg !5543
  %23 = getelementptr inbounds %"struct.std::_Vector_base", %"struct.std::_Vector_base"* %22, i32 0, i32 0, !dbg !5543
  %24 = bitcast %"struct.std::_Vector_base<std::array<unsigned long, 3>, std::allocator<std::array<unsigned long, 3>>>::_Vector_impl"* %23 to %"struct.std::_Vector_base<std::array<unsigned long, 3>, std::allocator<std::array<unsigned long, 3>>>::_Vector_impl_data"*, !dbg !5544
  %25 = getelementptr inbounds %"struct.std::_Vector_base<std::array<unsigned long, 3>, std::allocator<std::array<unsigned long, 3>>>::_Vector_impl_data", %"struct.std::_Vector_base<std::array<unsigned long, 3>, std::allocator<std::array<unsigned long, 3>>>::_Vector_impl_data"* %24, i32 0, i32 1, !dbg !5545
  %26 = load %"struct.std::array"*, %"struct.std::array"** %25, align 8, !dbg !5545
  %27 = load %"struct.std::array"*, %"struct.std::array"** %4, align 8, !dbg !5546
  call void @_ZNSt16allocator_traitsISaISt5arrayImLm3EEEE9constructIS1_JRKS1_EEEvRS2_PT_DpOT0_(%"class.std::allocator.2"* noundef nonnull align 1 dereferenceable(1) %21, %"struct.std::array"* noundef %26, %"struct.std::array"* noundef nonnull align 8 dereferenceable(24) %27) #3, !dbg !5547
  %28 = bitcast %"class.std::vector"* %6 to %"struct.std::_Vector_base"*, !dbg !5548
  %29 = getelementptr inbounds %"struct.std::_Vector_base", %"struct.std::_Vector_base"* %28, i32 0, i32 0, !dbg !5548
  %30 = bitcast %"struct.std::_Vector_base<std::array<unsigned long, 3>, std::allocator<std::array<unsigned long, 3>>>::_Vector_impl"* %29 to %"struct.std::_Vector_base<std::array<unsigned long, 3>, std::allocator<std::array<unsigned long, 3>>>::_Vector_impl_data"*, !dbg !5549
  %31 = getelementptr inbounds %"struct.std::_Vector_base<std::array<unsigned long, 3>, std::allocator<std::array<unsigned long, 3>>>::_Vector_impl_data", %"struct.std::_Vector_base<std::array<unsigned long, 3>, std::allocator<std::array<unsigned long, 3>>>::_Vector_impl_data"* %30, i32 0, i32 1, !dbg !5550
  %32 = load %"struct.std::array"*, %"struct.std::array"** %31, align 8, !dbg !5551
  %33 = getelementptr inbounds %"struct.std::array", %"struct.std::array"* %32, i32 1, !dbg !5551
  store %"struct.std::array"* %33, %"struct.std::array"** %31, align 8, !dbg !5551
  br label %40, !dbg !5552

34:                                               ; preds = %2
  %35 = call %"struct.std::array"* @_ZNSt6vectorISt5arrayImLm3EESaIS1_EE3endEv(%"class.std::vector"* noundef nonnull align 8 dereferenceable(24) %6) #3, !dbg !5553
  %36 = getelementptr inbounds %"class.__gnu_cxx::__normal_iterator.34", %"class.__gnu_cxx::__normal_iterator.34"* %5, i32 0, i32 0, !dbg !5553
  store %"struct.std::array"* %35, %"struct.std::array"** %36, align 8, !dbg !5553
  %37 = load %"struct.std::array"*, %"struct.std::array"** %4, align 8, !dbg !5554
  %38 = getelementptr inbounds %"class.__gnu_cxx::__normal_iterator.34", %"class.__gnu_cxx::__normal_iterator.34"* %5, i32 0, i32 0, !dbg !5555
  %39 = load %"struct.std::array"*, %"struct.std::array"** %38, align 8, !dbg !5555
  call void @_ZNSt6vectorISt5arrayImLm3EESaIS1_EE17_M_realloc_insertIJRKS1_EEEvN9__gnu_cxx17__normal_iteratorIPS1_S3_EEDpOT_(%"class.std::vector"* noundef nonnull align 8 dereferenceable(24) %6, %"struct.std::array"* %39, %"struct.std::array"* noundef nonnull align 8 dereferenceable(24) %37), !dbg !5555
  br label %40

40:                                               ; preds = %34, %18
  ret void, !dbg !5556
}

; Function Attrs: nounwind readonly willreturn
declare i32 @strcmp(i8* noundef, i8* noundef) #10

; Function Attrs: nobuiltin nounwind
declare void @_ZdaPv(i8* noundef) #11

; Function Attrs: mustprogress noinline nounwind optnone uwtable
define dso_local void @_ZNK11GraphEditor19findLowerBoundRangeEm(%"class.std::optional.11"* noalias sret(%"class.std::optional.11") align 8 %0, %class.GraphEditor* noundef nonnull align 8 dereferenceable(82) %1, i64 noundef %2) #6 align 2 !dbg !5557 {
  %4 = alloca %class.GraphEditor*, align 8
  %5 = alloca i64, align 8
  %6 = alloca %"class.std::vector"*, align 8
  %7 = alloca %"class.__gnu_cxx::__normal_iterator", align 8
  %8 = alloca %"class.__gnu_cxx::__normal_iterator", align 8
  %9 = alloca %"struct.std::array"*, align 8
  %10 = alloca %"struct.std::nullopt_t", align 1
  store %class.GraphEditor* %1, %class.GraphEditor** %4, align 8
  call void @llvm.dbg.declare(metadata %class.GraphEditor** %4, metadata !5558, metadata !DIExpression()), !dbg !5559
  store i64 %2, i64* %5, align 8
  call void @llvm.dbg.declare(metadata i64* %5, metadata !5560, metadata !DIExpression()), !dbg !5561
  %11 = load %class.GraphEditor*, %class.GraphEditor** %4, align 8
  call void @llvm.dbg.declare(metadata %"class.std::vector"** %6, metadata !5562, metadata !DIExpression()), !dbg !5564
  %12 = getelementptr inbounds %class.GraphEditor, %class.GraphEditor* %11, i32 0, i32 1, !dbg !5565
  store %"class.std::vector"* %12, %"class.std::vector"** %6, align 8, !dbg !5565
  call void @llvm.dbg.declare(metadata %"class.__gnu_cxx::__normal_iterator"* %7, metadata !5566, metadata !DIExpression()), !dbg !5564
  %13 = load %"class.std::vector"*, %"class.std::vector"** %6, align 8, !dbg !5567
  %14 = call %"struct.std::array"* @_ZNKSt6vectorISt5arrayImLm3EESaIS1_EE5beginEv(%"class.std::vector"* noundef nonnull align 8 dereferenceable(24) %13) #3, !dbg !5567
  %15 = getelementptr inbounds %"class.__gnu_cxx::__normal_iterator", %"class.__gnu_cxx::__normal_iterator"* %7, i32 0, i32 0, !dbg !5567
  store %"struct.std::array"* %14, %"struct.std::array"** %15, align 8, !dbg !5567
  call void @llvm.dbg.declare(metadata %"class.__gnu_cxx::__normal_iterator"* %8, metadata !5568, metadata !DIExpression()), !dbg !5564
  %16 = load %"class.std::vector"*, %"class.std::vector"** %6, align 8, !dbg !5567
  %17 = call %"struct.std::array"* @_ZNKSt6vectorISt5arrayImLm3EESaIS1_EE3endEv(%"class.std::vector"* noundef nonnull align 8 dereferenceable(24) %16) #3, !dbg !5567
  %18 = getelementptr inbounds %"class.__gnu_cxx::__normal_iterator", %"class.__gnu_cxx::__normal_iterator"* %8, i32 0, i32 0, !dbg !5567
  store %"struct.std::array"* %17, %"struct.std::array"** %18, align 8, !dbg !5567
  br label %19, !dbg !5567

19:                                               ; preds = %38, %3
  %20 = call noundef zeroext i1 @_ZN9__gnu_cxxeqIPKSt5arrayImLm3EES4_St6vectorIS2_SaIS2_EEEEbRKNS_17__normal_iteratorIT_T1_EERKNS8_IT0_SA_EE(%"class.__gnu_cxx::__normal_iterator"* noundef nonnull align 8 dereferenceable(8) %7, %"class.__gnu_cxx::__normal_iterator"* noundef nonnull align 8 dereferenceable(8) %8) #3, !dbg !5567
  %21 = xor i1 %20, true, !dbg !5567
  br i1 %21, label %22, label %40, !dbg !5567

22:                                               ; preds = %19
  call void @llvm.dbg.declare(metadata %"struct.std::array"** %9, metadata !5569, metadata !DIExpression()), !dbg !5571
  %23 = call noundef nonnull align 8 dereferenceable(24) %"struct.std::array"* @_ZNK9__gnu_cxx17__normal_iteratorIPKSt5arrayImLm3EESt6vectorIS2_SaIS2_EEEdeEv(%"class.__gnu_cxx::__normal_iterator"* noundef nonnull align 8 dereferenceable(8) %7) #3, !dbg !5572
  store %"struct.std::array"* %23, %"struct.std::array"** %9, align 8, !dbg !5571
  %24 = load %"struct.std::array"*, %"struct.std::array"** %9, align 8, !dbg !5573
  %25 = call noundef nonnull align 8 dereferenceable(8) i64* @_ZNKSt5arrayImLm3EEixEm(%"struct.std::array"* noundef nonnull align 8 dereferenceable(24) %24, i64 noundef 0) #3, !dbg !5573
  %26 = load i64, i64* %25, align 8, !dbg !5573
  %27 = load i64, i64* %5, align 8, !dbg !5576
  %28 = icmp ult i64 %26, %27, !dbg !5577
  br i1 %28, label %29, label %37, !dbg !5578

29:                                               ; preds = %22
  %30 = load i64, i64* %5, align 8, !dbg !5579
  %31 = load %"struct.std::array"*, %"struct.std::array"** %9, align 8, !dbg !5580
  %32 = call noundef nonnull align 8 dereferenceable(8) i64* @_ZNKSt5arrayImLm3EEixEm(%"struct.std::array"* noundef nonnull align 8 dereferenceable(24) %31, i64 noundef 1) #3, !dbg !5580
  %33 = load i64, i64* %32, align 8, !dbg !5580
  %34 = icmp ult i64 %30, %33, !dbg !5581
  br i1 %34, label %35, label %37, !dbg !5582

35:                                               ; preds = %29
  %36 = load %"struct.std::array"*, %"struct.std::array"** %9, align 8, !dbg !5583
  call void @_ZNSt8optionalISt5arrayImLm3EEEC2IRKS1_Lb1EEEOT_(%"class.std::optional.11"* noundef nonnull align 8 dereferenceable(32) %0, %"struct.std::array"* noundef nonnull align 8 dereferenceable(24) %36) #3, !dbg !5583
  br label %41, !dbg !5584

37:                                               ; preds = %29, %22
  br label %38, !dbg !5585

38:                                               ; preds = %37
  %39 = call noundef nonnull align 8 dereferenceable(8) %"class.__gnu_cxx::__normal_iterator"* @_ZN9__gnu_cxx17__normal_iteratorIPKSt5arrayImLm3EESt6vectorIS2_SaIS2_EEEppEv(%"class.__gnu_cxx::__normal_iterator"* noundef nonnull align 8 dereferenceable(8) %7) #3, !dbg !5567
  br label %19, !dbg !5567, !llvm.loop !5586

40:                                               ; preds = %19
  call void @_ZNSt8optionalISt5arrayImLm3EEEC2ESt9nullopt_t(%"class.std::optional.11"* noundef nonnull align 8 dereferenceable(32) %0) #3, !dbg !5588
  br label %41, !dbg !5589

41:                                               ; preds = %40, %35
  ret void, !dbg !5590
}

; Function Attrs: mustprogress noinline nounwind optnone uwtable
define linkonce_odr dso_local %"struct.std::array"* @_ZNKSt6vectorISt5arrayImLm3EESaIS1_EE5beginEv(%"class.std::vector"* noundef nonnull align 8 dereferenceable(24) %0) #6 comdat align 2 !dbg !5591 {
  %2 = alloca %"class.__gnu_cxx::__normal_iterator", align 8
  %3 = alloca %"class.std::vector"*, align 8
  store %"class.std::vector"* %0, %"class.std::vector"** %3, align 8
  call void @llvm.dbg.declare(metadata %"class.std::vector"** %3, metadata !5592, metadata !DIExpression()), !dbg !5594
  %4 = load %"class.std::vector"*, %"class.std::vector"** %3, align 8
  %5 = bitcast %"class.std::vector"* %4 to %"struct.std::_Vector_base"*, !dbg !5595
  %6 = getelementptr inbounds %"struct.std::_Vector_base", %"struct.std::_Vector_base"* %5, i32 0, i32 0, !dbg !5595
  %7 = bitcast %"struct.std::_Vector_base<std::array<unsigned long, 3>, std::allocator<std::array<unsigned long, 3>>>::_Vector_impl"* %6 to %"struct.std::_Vector_base<std::array<unsigned long, 3>, std::allocator<std::array<unsigned long, 3>>>::_Vector_impl_data"*, !dbg !5596
  %8 = getelementptr inbounds %"struct.std::_Vector_base<std::array<unsigned long, 3>, std::allocator<std::array<unsigned long, 3>>>::_Vector_impl_data", %"struct.std::_Vector_base<std::array<unsigned long, 3>, std::allocator<std::array<unsigned long, 3>>>::_Vector_impl_data"* %7, i32 0, i32 0, !dbg !5597
  call void @_ZN9__gnu_cxx17__normal_iteratorIPKSt5arrayImLm3EESt6vectorIS2_SaIS2_EEEC2ERKS4_(%"class.__gnu_cxx::__normal_iterator"* noundef nonnull align 8 dereferenceable(8) %2, %"struct.std::array"** noundef nonnull align 8 dereferenceable(8) %8) #3, !dbg !5598
  %9 = getelementptr inbounds %"class.__gnu_cxx::__normal_iterator", %"class.__gnu_cxx::__normal_iterator"* %2, i32 0, i32 0, !dbg !5599
  %10 = load %"struct.std::array"*, %"struct.std::array"** %9, align 8, !dbg !5599
  ret %"struct.std::array"* %10, !dbg !5599
}

; Function Attrs: mustprogress noinline nounwind optnone uwtable
define linkonce_odr dso_local %"struct.std::array"* @_ZNKSt6vectorISt5arrayImLm3EESaIS1_EE3endEv(%"class.std::vector"* noundef nonnull align 8 dereferenceable(24) %0) #6 comdat align 2 !dbg !5600 {
  %2 = alloca %"class.__gnu_cxx::__normal_iterator", align 8
  %3 = alloca %"class.std::vector"*, align 8
  store %"class.std::vector"* %0, %"class.std::vector"** %3, align 8
  call void @llvm.dbg.declare(metadata %"class.std::vector"** %3, metadata !5601, metadata !DIExpression()), !dbg !5602
  %4 = load %"class.std::vector"*, %"class.std::vector"** %3, align 8
  %5 = bitcast %"class.std::vector"* %4 to %"struct.std::_Vector_base"*, !dbg !5603
  %6 = getelementptr inbounds %"struct.std::_Vector_base", %"struct.std::_Vector_base"* %5, i32 0, i32 0, !dbg !5603
  %7 = bitcast %"struct.std::_Vector_base<std::array<unsigned long, 3>, std::allocator<std::array<unsigned long, 3>>>::_Vector_impl"* %6 to %"struct.std::_Vector_base<std::array<unsigned long, 3>, std::allocator<std::array<unsigned long, 3>>>::_Vector_impl_data"*, !dbg !5604
  %8 = getelementptr inbounds %"struct.std::_Vector_base<std::array<unsigned long, 3>, std::allocator<std::array<unsigned long, 3>>>::_Vector_impl_data", %"struct.std::_Vector_base<std::array<unsigned long, 3>, std::allocator<std::array<unsigned long, 3>>>::_Vector_impl_data"* %7, i32 0, i32 1, !dbg !5605
  call void @_ZN9__gnu_cxx17__normal_iteratorIPKSt5arrayImLm3EESt6vectorIS2_SaIS2_EEEC2ERKS4_(%"class.__gnu_cxx::__normal_iterator"* noundef nonnull align 8 dereferenceable(8) %2, %"struct.std::array"** noundef nonnull align 8 dereferenceable(8) %8) #3, !dbg !5606
  %9 = getelementptr inbounds %"class.__gnu_cxx::__normal_iterator", %"class.__gnu_cxx::__normal_iterator"* %2, i32 0, i32 0, !dbg !5607
  %10 = load %"struct.std::array"*, %"struct.std::array"** %9, align 8, !dbg !5607
  ret %"struct.std::array"* %10, !dbg !5607
}

; Function Attrs: mustprogress noinline nounwind optnone uwtable
define linkonce_odr dso_local noundef zeroext i1 @_ZN9__gnu_cxxeqIPKSt5arrayImLm3EES4_St6vectorIS2_SaIS2_EEEEbRKNS_17__normal_iteratorIT_T1_EERKNS8_IT0_SA_EE(%"class.__gnu_cxx::__normal_iterator"* noundef nonnull align 8 dereferenceable(8) %0, %"class.__gnu_cxx::__normal_iterator"* noundef nonnull align 8 dereferenceable(8) %1) #6 comdat !dbg !5608 {
  %3 = alloca %"class.__gnu_cxx::__normal_iterator"*, align 8
  %4 = alloca %"class.__gnu_cxx::__normal_iterator"*, align 8
  store %"class.__gnu_cxx::__normal_iterator"* %0, %"class.__gnu_cxx::__normal_iterator"** %3, align 8
  call void @llvm.dbg.declare(metadata %"class.__gnu_cxx::__normal_iterator"** %3, metadata !5615, metadata !DIExpression()), !dbg !5616
  store %"class.__gnu_cxx::__normal_iterator"* %1, %"class.__gnu_cxx::__normal_iterator"** %4, align 8
  call void @llvm.dbg.declare(metadata %"class.__gnu_cxx::__normal_iterator"** %4, metadata !5617, metadata !DIExpression()), !dbg !5618
  %5 = load %"class.__gnu_cxx::__normal_iterator"*, %"class.__gnu_cxx::__normal_iterator"** %3, align 8, !dbg !5619
  %6 = call noundef nonnull align 8 dereferenceable(8) %"struct.std::array"** @_ZNK9__gnu_cxx17__normal_iteratorIPKSt5arrayImLm3EESt6vectorIS2_SaIS2_EEE4baseEv(%"class.__gnu_cxx::__normal_iterator"* noundef nonnull align 8 dereferenceable(8) %5) #3, !dbg !5620
  %7 = load %"struct.std::array"*, %"struct.std::array"** %6, align 8, !dbg !5620
  %8 = load %"class.__gnu_cxx::__normal_iterator"*, %"class.__gnu_cxx::__normal_iterator"** %4, align 8, !dbg !5621
  %9 = call noundef nonnull align 8 dereferenceable(8) %"struct.std::array"** @_ZNK9__gnu_cxx17__normal_iteratorIPKSt5arrayImLm3EESt6vectorIS2_SaIS2_EEE4baseEv(%"class.__gnu_cxx::__normal_iterator"* noundef nonnull align 8 dereferenceable(8) %8) #3, !dbg !5622
  %10 = load %"struct.std::array"*, %"struct.std::array"** %9, align 8, !dbg !5622
  %11 = icmp eq %"struct.std::array"* %7, %10, !dbg !5623
  ret i1 %11, !dbg !5624
}

; Function Attrs: mustprogress noinline nounwind optnone uwtable
define linkonce_odr dso_local noundef nonnull align 8 dereferenceable(24) %"struct.std::array"* @_ZNK9__gnu_cxx17__normal_iteratorIPKSt5arrayImLm3EESt6vectorIS2_SaIS2_EEEdeEv(%"class.__gnu_cxx::__normal_iterator"* noundef nonnull align 8 dereferenceable(8) %0) #6 comdat align 2 !dbg !5625 {
  %2 = alloca %"class.__gnu_cxx::__normal_iterator"*, align 8
  store %"class.__gnu_cxx::__normal_iterator"* %0, %"class.__gnu_cxx::__normal_iterator"** %2, align 8
  call void @llvm.dbg.declare(metadata %"class.__gnu_cxx::__normal_iterator"** %2, metadata !5626, metadata !DIExpression()), !dbg !5628
  %3 = load %"class.__gnu_cxx::__normal_iterator"*, %"class.__gnu_cxx::__normal_iterator"** %2, align 8
  %4 = getelementptr inbounds %"class.__gnu_cxx::__normal_iterator", %"class.__gnu_cxx::__normal_iterator"* %3, i32 0, i32 0, !dbg !5629
  %5 = load %"struct.std::array"*, %"struct.std::array"** %4, align 8, !dbg !5629
  ret %"struct.std::array"* %5, !dbg !5630
}

; Function Attrs: mustprogress noinline nounwind optnone uwtable
define linkonce_odr dso_local noundef nonnull align 8 dereferenceable(8) i64* @_ZNKSt5arrayImLm3EEixEm(%"struct.std::array"* noundef nonnull align 8 dereferenceable(24) %0, i64 noundef %1) #6 comdat align 2 !dbg !5631 {
  %3 = alloca %"struct.std::array"*, align 8
  %4 = alloca i64, align 8
  store %"struct.std::array"* %0, %"struct.std::array"** %3, align 8
  call void @llvm.dbg.declare(metadata %"struct.std::array"** %3, metadata !5632, metadata !DIExpression()), !dbg !5633
  store i64 %1, i64* %4, align 8
  call void @llvm.dbg.declare(metadata i64* %4, metadata !5634, metadata !DIExpression()), !dbg !5635
  %5 = load %"struct.std::array"*, %"struct.std::array"** %3, align 8
  %6 = getelementptr inbounds %"struct.std::array", %"struct.std::array"* %5, i32 0, i32 0, !dbg !5636
  %7 = load i64, i64* %4, align 8, !dbg !5637
  %8 = call noundef nonnull align 8 dereferenceable(8) i64* @_ZNSt14__array_traitsImLm3EE6_S_refERA3_Kmm([3 x i64]* noundef nonnull align 8 dereferenceable(24) %6, i64 noundef %7) #3, !dbg !5638
  ret i64* %8, !dbg !5639
}

; Function Attrs: noinline nounwind optnone uwtable
define linkonce_odr dso_local void @_ZNSt8optionalISt5arrayImLm3EEEC2IRKS1_Lb1EEEOT_(%"class.std::optional.11"* noundef nonnull align 8 dereferenceable(32) %0, %"struct.std::array"* noundef nonnull align 8 dereferenceable(24) %1) unnamed_addr #8 comdat align 2 personality i8* bitcast (i32 (...)* @__gxx_personality_v0 to i8*) !dbg !5640 {
  %3 = alloca %"class.std::optional.11"*, align 8
  %4 = alloca %"struct.std::array"*, align 8
  %5 = alloca %"struct.std::in_place_t", align 1
  store %"class.std::optional.11"* %0, %"class.std::optional.11"** %3, align 8
  call void @llvm.dbg.declare(metadata %"class.std::optional.11"** %3, metadata !5646, metadata !DIExpression()), !dbg !5648
  store %"struct.std::array"* %1, %"struct.std::array"** %4, align 8
  call void @llvm.dbg.declare(metadata %"struct.std::array"** %4, metadata !5649, metadata !DIExpression()), !dbg !5650
  %6 = load %"class.std::optional.11"*, %"class.std::optional.11"** %3, align 8
  %7 = bitcast %"class.std::optional.11"* %6 to %"struct.std::_Optional_base.12"*, !dbg !5651
  %8 = load %"struct.std::array"*, %"struct.std::array"** %4, align 8, !dbg !5652
  %9 = call noundef nonnull align 8 dereferenceable(24) %"struct.std::array"* @_ZSt7forwardIRKSt5arrayImLm3EEEOT_RNSt16remove_referenceIS4_E4typeE(%"struct.std::array"* noundef nonnull align 8 dereferenceable(24) %8) #3, !dbg !5653
  invoke void @_ZNSt14_Optional_baseISt5arrayImLm3EELb1ELb1EEC2IJRKS1_ELb0EEESt10in_place_tDpOT_(%"struct.std::_Optional_base.12"* noundef nonnull align 8 dereferenceable(32) %7, %"struct.std::array"* noundef nonnull align 8 dereferenceable(24) %9)
          to label %10 unwind label %12, !dbg !5654

10:                                               ; preds = %2
  %11 = bitcast %"class.std::optional.11"* %6 to %"struct.std::_Enable_copy_move.16"*, !dbg !5651
  ret void, !dbg !5655

12:                                               ; preds = %2
  %13 = landingpad { i8*, i32 }
          catch i8* null, !dbg !5654
  %14 = extractvalue { i8*, i32 } %13, 0, !dbg !5654
  call void @__clang_call_terminate(i8* %14) #20, !dbg !5654
  unreachable, !dbg !5654
}

; Function Attrs: mustprogress noinline nounwind optnone uwtable
define linkonce_odr dso_local noundef nonnull align 8 dereferenceable(8) %"class.__gnu_cxx::__normal_iterator"* @_ZN9__gnu_cxx17__normal_iteratorIPKSt5arrayImLm3EESt6vectorIS2_SaIS2_EEEppEv(%"class.__gnu_cxx::__normal_iterator"* noundef nonnull align 8 dereferenceable(8) %0) #6 comdat align 2 !dbg !5656 {
  %2 = alloca %"class.__gnu_cxx::__normal_iterator"*, align 8
  store %"class.__gnu_cxx::__normal_iterator"* %0, %"class.__gnu_cxx::__normal_iterator"** %2, align 8
  call void @llvm.dbg.declare(metadata %"class.__gnu_cxx::__normal_iterator"** %2, metadata !5657, metadata !DIExpression()), !dbg !5659
  %3 = load %"class.__gnu_cxx::__normal_iterator"*, %"class.__gnu_cxx::__normal_iterator"** %2, align 8
  %4 = getelementptr inbounds %"class.__gnu_cxx::__normal_iterator", %"class.__gnu_cxx::__normal_iterator"* %3, i32 0, i32 0, !dbg !5660
  %5 = load %"struct.std::array"*, %"struct.std::array"** %4, align 8, !dbg !5661
  %6 = getelementptr inbounds %"struct.std::array", %"struct.std::array"* %5, i32 1, !dbg !5661
  store %"struct.std::array"* %6, %"struct.std::array"** %4, align 8, !dbg !5661
  ret %"class.__gnu_cxx::__normal_iterator"* %3, !dbg !5662
}

; Function Attrs: noinline nounwind optnone uwtable
define linkonce_odr dso_local void @_ZNSt8optionalISt5arrayImLm3EEEC2ESt9nullopt_t(%"class.std::optional.11"* noundef nonnull align 8 dereferenceable(32) %0) unnamed_addr #8 comdat align 2 !dbg !5663 {
  %2 = alloca %"struct.std::nullopt_t", align 1
  %3 = alloca %"class.std::optional.11"*, align 8
  store %"class.std::optional.11"* %0, %"class.std::optional.11"** %3, align 8
  call void @llvm.dbg.declare(metadata %"class.std::optional.11"** %3, metadata !5664, metadata !DIExpression()), !dbg !5665
  call void @llvm.dbg.declare(metadata %"struct.std::nullopt_t"* %2, metadata !5666, metadata !DIExpression()), !dbg !5667
  %4 = load %"class.std::optional.11"*, %"class.std::optional.11"** %3, align 8
  %5 = bitcast %"class.std::optional.11"* %4 to %"struct.std::_Optional_base.12"*, !dbg !5668
  call void @_ZNSt14_Optional_baseISt5arrayImLm3EELb1ELb1EEC2Ev(%"struct.std::_Optional_base.12"* noundef nonnull align 8 dereferenceable(32) %5) #3, !dbg !5669
  %6 = bitcast %"class.std::optional.11"* %4 to %"struct.std::_Enable_copy_move.16"*, !dbg !5668
  ret void, !dbg !5670
}

; Function Attrs: mustprogress noinline optnone uwtable
define dso_local void @_Z6Loggerv() #4 !dbg !5671 {
  %1 = alloca i64*, align 8
  %2 = alloca i64*, align 8
  %3 = alloca %class.GraphEditor*, align 8
  call void @llvm.dbg.declare(metadata i64** %1, metadata !5672, metadata !DIExpression()), !dbg !5673
  call void @llvm.dbg.declare(metadata i64** %2, metadata !5674, metadata !DIExpression()), !dbg !5675
  call void @llvm.dbg.declare(metadata %class.GraphEditor** %3, metadata !5676, metadata !DIExpression()), !dbg !5677
  %4 = call noundef nonnull align 8 dereferenceable(82) %class.GraphEditor* @_ZN11GraphEditor11getInstanceEv(), !dbg !5678
  store %class.GraphEditor* %4, %class.GraphEditor** %3, align 8, !dbg !5677
  %5 = load %class.GraphEditor*, %class.GraphEditor** %3, align 8, !dbg !5679
  %6 = call i64* @llvm.returnaddress(i32 1)
  %7 = call i64* @llvm.returnaddress(i32 0)
  call void @_ZN11GraphEditor7addCallEPlS0_(%class.GraphEditor* noundef nonnull align 8 dereferenceable(82) %5, i64* noundef %6, i64* noundef %7), !dbg !5682
  ret void, !dbg !5683
}
declare i64* @llvm.returnaddress(i32)

; Function Attrs: mustprogress noinline optnone uwtable
define linkonce_odr dso_local noundef nonnull align 8 dereferenceable(82) %class.GraphEditor* @_ZN11GraphEditor11getInstanceEv() #4 comdat align 2 personality i8* bitcast (i32 (...)* @__gxx_personality_v0 to i8*) !dbg !33 {
  %1 = alloca i8*, align 8
  %2 = alloca i32, align 4
  %3 = load atomic i8, i8* bitcast (i64* @_ZGVZN11GraphEditor11getInstanceEvE6Object to i8*) acquire, align 8, !dbg !5684
  %4 = icmp eq i8 %3, 0, !dbg !5684
  br i1 %4, label %5, label %11, !dbg !5684, !prof !5685

5:                                                ; preds = %0
  %6 = call i32 @__cxa_guard_acquire(i64* @_ZGVZN11GraphEditor11getInstanceEvE6Object) #3, !dbg !5684
  %7 = icmp ne i32 %6, 0, !dbg !5684
  br i1 %7, label %8, label %11, !dbg !5684

8:                                                ; preds = %5
  invoke void @_ZN11GraphEditorC2Ev(%class.GraphEditor* noundef nonnull align 8 dereferenceable(82) @_ZZN11GraphEditor11getInstanceEvE6Object)
          to label %9 unwind label %12, !dbg !5686

9:                                                ; preds = %8
  %10 = call i32 @__cxa_atexit(void (i8*)* bitcast (void (%class.GraphEditor*)* @_ZN11GraphEditorD2Ev to void (i8*)*), i8* bitcast (%class.GraphEditor* @_ZZN11GraphEditor11getInstanceEvE6Object to i8*), i8* @__dso_handle) #3, !dbg !5684
  call void @__cxa_guard_release(i64* @_ZGVZN11GraphEditor11getInstanceEvE6Object) #3, !dbg !5684
  br label %11, !dbg !5684

11:                                               ; preds = %9, %5, %0
  ret %class.GraphEditor* @_ZZN11GraphEditor11getInstanceEvE6Object, !dbg !5687

12:                                               ; preds = %8
  %13 = landingpad { i8*, i32 }
          cleanup, !dbg !5688
  %14 = extractvalue { i8*, i32 } %13, 0, !dbg !5688
  store i8* %14, i8** %1, align 8, !dbg !5688
  %15 = extractvalue { i8*, i32 } %13, 1, !dbg !5688
  store i32 %15, i32* %2, align 4, !dbg !5688
  call void @__cxa_guard_abort(i64* @_ZGVZN11GraphEditor11getInstanceEvE6Object) #3, !dbg !5684
  br label %16, !dbg !5684

16:                                               ; preds = %12
  %17 = load i8*, i8** %1, align 8, !dbg !5684
  %18 = load i32, i32* %2, align 4, !dbg !5684
  %19 = insertvalue { i8*, i32 } undef, i8* %17, 0, !dbg !5684
  %20 = insertvalue { i8*, i32 } %19, i32 %18, 1, !dbg !5684
  resume { i8*, i32 } %20, !dbg !5684
}

; Function Attrs: mustprogress noinline nounwind optnone uwtable
define linkonce_odr dso_local noundef zeroext i1 @_ZNKSt8optionalISt5arrayImLm3EEEcvbEv(%"class.std::optional.11"* noundef nonnull align 8 dereferenceable(32) %0) #6 comdat align 2 !dbg !5689 {
  %2 = alloca %"class.std::optional.11"*, align 8
  store %"class.std::optional.11"* %0, %"class.std::optional.11"** %2, align 8
  call void @llvm.dbg.declare(metadata %"class.std::optional.11"** %2, metadata !5690, metadata !DIExpression()), !dbg !5692
  %3 = load %"class.std::optional.11"*, %"class.std::optional.11"** %2, align 8
  %4 = bitcast %"class.std::optional.11"* %3 to %"class.std::_Optional_base_impl.13"*, !dbg !5693
  %5 = call noundef zeroext i1 @_ZNKSt19_Optional_base_implISt5arrayImLm3EESt14_Optional_baseIS1_Lb1ELb1EEE13_M_is_engagedEv(%"class.std::_Optional_base_impl.13"* noundef nonnull align 1 dereferenceable(1) %4) #3, !dbg !5693
  ret i1 %5, !dbg !5694
}

; Function Attrs: mustprogress noinline nounwind optnone uwtable
define linkonce_odr dso_local noundef nonnull align 8 dereferenceable(24) %"struct.std::array"* @_ZNRSt8optionalISt5arrayImLm3EEEdeEv(%"class.std::optional.11"* noundef nonnull align 8 dereferenceable(32) %0) #6 comdat align 2 !dbg !5695 {
  %2 = alloca %"class.std::optional.11"*, align 8
  store %"class.std::optional.11"* %0, %"class.std::optional.11"** %2, align 8
  call void @llvm.dbg.declare(metadata %"class.std::optional.11"** %2, metadata !5696, metadata !DIExpression()), !dbg !5697
  %3 = load %"class.std::optional.11"*, %"class.std::optional.11"** %2, align 8
  %4 = bitcast %"class.std::optional.11"* %3 to %"class.std::_Optional_base_impl.13"*, !dbg !5698
  %5 = call noundef nonnull align 8 dereferenceable(24) %"struct.std::array"* @_ZNSt19_Optional_base_implISt5arrayImLm3EESt14_Optional_baseIS1_Lb1ELb1EEE6_M_getEv(%"class.std::_Optional_base_impl.13"* noundef nonnull align 1 dereferenceable(1) %4) #3, !dbg !5698
  ret %"struct.std::array"* %5, !dbg !5699
}

; Function Attrs: mustprogress noinline nounwind optnone uwtable
define linkonce_odr dso_local noundef nonnull align 1 dereferenceable(1) i8* @_ZNKRSt8optionalIbEdeEv(%"class.std::optional"* noundef nonnull align 1 dereferenceable(2) %0) #6 comdat align 2 !dbg !5700 {
  %2 = alloca %"class.std::optional"*, align 8
  store %"class.std::optional"* %0, %"class.std::optional"** %2, align 8
  call void @llvm.dbg.declare(metadata %"class.std::optional"** %2, metadata !5701, metadata !DIExpression()), !dbg !5702
  %3 = load %"class.std::optional"*, %"class.std::optional"** %2, align 8
  %4 = bitcast %"class.std::optional"* %3 to %"class.std::_Optional_base_impl"*, !dbg !5703
  %5 = call noundef nonnull align 1 dereferenceable(1) i8* @_ZNKSt19_Optional_base_implIbSt14_Optional_baseIbLb1ELb1EEE6_M_getEv(%"class.std::_Optional_base_impl"* noundef nonnull align 1 dereferenceable(1) %4) #3, !dbg !5703
  ret i8* %5, !dbg !5704
}

; Function Attrs: mustprogress noinline nounwind optnone uwtable
define linkonce_odr dso_local noundef zeroext i1 @_ZNKSt19_Optional_base_implISt5arrayImLm3EESt14_Optional_baseIS1_Lb1ELb1EEE13_M_is_engagedEv(%"class.std::_Optional_base_impl.13"* noundef nonnull align 1 dereferenceable(1) %0) #6 comdat align 2 !dbg !5705 {
  %2 = alloca %"class.std::_Optional_base_impl.13"*, align 8
  store %"class.std::_Optional_base_impl.13"* %0, %"class.std::_Optional_base_impl.13"** %2, align 8
  call void @llvm.dbg.declare(metadata %"class.std::_Optional_base_impl.13"** %2, metadata !5706, metadata !DIExpression()), !dbg !5708
  %3 = load %"class.std::_Optional_base_impl.13"*, %"class.std::_Optional_base_impl.13"** %2, align 8
  %4 = bitcast %"class.std::_Optional_base_impl.13"* %3 to %"struct.std::_Optional_base.12"*, !dbg !5709
  %5 = getelementptr inbounds %"struct.std::_Optional_base.12", %"struct.std::_Optional_base.12"* %4, i32 0, i32 0, !dbg !5710
  %6 = bitcast %"struct.std::_Optional_payload.14"* %5 to %"struct.std::_Optional_payload_base.15"*, !dbg !5709
  %7 = getelementptr inbounds %"struct.std::_Optional_payload_base.15", %"struct.std::_Optional_payload_base.15"* %6, i32 0, i32 1, !dbg !5711
  %8 = load i8, i8* %7, align 8, !dbg !5711
  %9 = trunc i8 %8 to i1, !dbg !5711
  ret i1 %9, !dbg !5712
}

; Function Attrs: mustprogress noinline nounwind optnone uwtable
define linkonce_odr dso_local noundef nonnull align 8 dereferenceable(24) %"struct.std::array"* @_ZNSt19_Optional_base_implISt5arrayImLm3EESt14_Optional_baseIS1_Lb1ELb1EEE6_M_getEv(%"class.std::_Optional_base_impl.13"* noundef nonnull align 1 dereferenceable(1) %0) #6 comdat align 2 !dbg !5713 {
  %2 = alloca %"class.std::_Optional_base_impl.13"*, align 8
  store %"class.std::_Optional_base_impl.13"* %0, %"class.std::_Optional_base_impl.13"** %2, align 8
  call void @llvm.dbg.declare(metadata %"class.std::_Optional_base_impl.13"** %2, metadata !5714, metadata !DIExpression()), !dbg !5716
  %3 = load %"class.std::_Optional_base_impl.13"*, %"class.std::_Optional_base_impl.13"** %2, align 8
  br label %4, !dbg !5717

4:                                                ; preds = %1
  br label %5, !dbg !5718

5:                                                ; preds = %4
  br label %6, !dbg !5718

6:                                                ; preds = %5
  %7 = bitcast %"class.std::_Optional_base_impl.13"* %3 to %"struct.std::_Optional_base.12"*, !dbg !5720
  %8 = getelementptr inbounds %"struct.std::_Optional_base.12", %"struct.std::_Optional_base.12"* %7, i32 0, i32 0, !dbg !5721
  %9 = bitcast %"struct.std::_Optional_payload.14"* %8 to %"struct.std::_Optional_payload_base.15"*, !dbg !5720
  %10 = call noundef nonnull align 8 dereferenceable(24) %"struct.std::array"* @_ZNSt22_Optional_payload_baseISt5arrayImLm3EEE6_M_getEv(%"struct.std::_Optional_payload_base.15"* noundef nonnull align 8 dereferenceable(25) %9) #3, !dbg !5722
  ret %"struct.std::array"* %10, !dbg !5723
}

; Function Attrs: mustprogress noinline nounwind optnone uwtable
define linkonce_odr dso_local noundef nonnull align 8 dereferenceable(24) %"struct.std::array"* @_ZNSt22_Optional_payload_baseISt5arrayImLm3EEE6_M_getEv(%"struct.std::_Optional_payload_base.15"* noundef nonnull align 8 dereferenceable(25) %0) #6 comdat align 2 !dbg !5724 {
  %2 = alloca %"struct.std::_Optional_payload_base.15"*, align 8
  store %"struct.std::_Optional_payload_base.15"* %0, %"struct.std::_Optional_payload_base.15"** %2, align 8
  call void @llvm.dbg.declare(metadata %"struct.std::_Optional_payload_base.15"** %2, metadata !5725, metadata !DIExpression()), !dbg !5727
  %3 = load %"struct.std::_Optional_payload_base.15"*, %"struct.std::_Optional_payload_base.15"** %2, align 8
  %4 = getelementptr inbounds %"struct.std::_Optional_payload_base.15", %"struct.std::_Optional_payload_base.15"* %3, i32 0, i32 0, !dbg !5728
  %5 = bitcast %"union.std::_Optional_payload_base<std::array<unsigned long, 3>>::_Storage"* %4 to %"struct.std::array"*, !dbg !5729
  ret %"struct.std::array"* %5, !dbg !5730
}

; Function Attrs: mustprogress noinline nounwind optnone uwtable
define linkonce_odr dso_local noundef nonnull align 1 dereferenceable(1) i8* @_ZNKSt19_Optional_base_implIbSt14_Optional_baseIbLb1ELb1EEE6_M_getEv(%"class.std::_Optional_base_impl"* noundef nonnull align 1 dereferenceable(1) %0) #6 comdat align 2 !dbg !5731 {
  %2 = alloca %"class.std::_Optional_base_impl"*, align 8
  store %"class.std::_Optional_base_impl"* %0, %"class.std::_Optional_base_impl"** %2, align 8
  call void @llvm.dbg.declare(metadata %"class.std::_Optional_base_impl"** %2, metadata !5732, metadata !DIExpression()), !dbg !5734
  %3 = load %"class.std::_Optional_base_impl"*, %"class.std::_Optional_base_impl"** %2, align 8
  br label %4, !dbg !5735

4:                                                ; preds = %1
  br label %5, !dbg !5736

5:                                                ; preds = %4
  br label %6, !dbg !5736

6:                                                ; preds = %5
  %7 = bitcast %"class.std::_Optional_base_impl"* %3 to %"struct.std::_Optional_base"*, !dbg !5738
  %8 = getelementptr inbounds %"struct.std::_Optional_base", %"struct.std::_Optional_base"* %7, i32 0, i32 0, !dbg !5739
  %9 = bitcast %"struct.std::_Optional_payload"* %8 to %"struct.std::_Optional_payload_base"*, !dbg !5738
  %10 = call noundef nonnull align 1 dereferenceable(1) i8* @_ZNKSt22_Optional_payload_baseIbE6_M_getEv(%"struct.std::_Optional_payload_base"* noundef nonnull align 1 dereferenceable(2) %9) #3, !dbg !5740
  ret i8* %10, !dbg !5741
}

; Function Attrs: mustprogress noinline nounwind optnone uwtable
define linkonce_odr dso_local noundef nonnull align 1 dereferenceable(1) i8* @_ZNKSt22_Optional_payload_baseIbE6_M_getEv(%"struct.std::_Optional_payload_base"* noundef nonnull align 1 dereferenceable(2) %0) #6 comdat align 2 !dbg !5742 {
  %2 = alloca %"struct.std::_Optional_payload_base"*, align 8
  store %"struct.std::_Optional_payload_base"* %0, %"struct.std::_Optional_payload_base"** %2, align 8
  call void @llvm.dbg.declare(metadata %"struct.std::_Optional_payload_base"** %2, metadata !5743, metadata !DIExpression()), !dbg !5745
  %3 = load %"struct.std::_Optional_payload_base"*, %"struct.std::_Optional_payload_base"** %2, align 8
  %4 = getelementptr inbounds %"struct.std::_Optional_payload_base", %"struct.std::_Optional_payload_base"* %3, i32 0, i32 0, !dbg !5746
  %5 = bitcast %"union.std::_Optional_payload_base<bool>::_Storage"* %4 to i8*, !dbg !5747
  ret i8* %5, !dbg !5748
}

; Function Attrs: mustprogress noinline optnone uwtable
define linkonce_odr dso_local noundef i32 @_ZNSt8ios_base4setfESt13_Ios_FmtflagsS0_(%"class.std::ios_base"* noundef nonnull align 8 dereferenceable(216) %0, i32 noundef %1, i32 noundef %2) #4 comdat align 2 !dbg !5749 {
  %4 = alloca %"class.std::ios_base"*, align 8
  %5 = alloca i32, align 4
  %6 = alloca i32, align 4
  %7 = alloca i32, align 4
  store %"class.std::ios_base"* %0, %"class.std::ios_base"** %4, align 8
  call void @llvm.dbg.declare(metadata %"class.std::ios_base"** %4, metadata !5755, metadata !DIExpression()), !dbg !5757
  store i32 %1, i32* %5, align 4
  call void @llvm.dbg.declare(metadata i32* %5, metadata !5758, metadata !DIExpression()), !dbg !5759
  store i32 %2, i32* %6, align 4
  call void @llvm.dbg.declare(metadata i32* %6, metadata !5760, metadata !DIExpression()), !dbg !5761
  %8 = load %"class.std::ios_base"*, %"class.std::ios_base"** %4, align 8
  call void @llvm.dbg.declare(metadata i32* %7, metadata !5762, metadata !DIExpression()), !dbg !5763
  %9 = getelementptr inbounds %"class.std::ios_base", %"class.std::ios_base"* %8, i32 0, i32 3, !dbg !5764
  %10 = load i32, i32* %9, align 8, !dbg !5764
  store i32 %10, i32* %7, align 4, !dbg !5763
  %11 = load i32, i32* %6, align 4, !dbg !5765
  %12 = call noundef i32 @_ZStcoSt13_Ios_Fmtflags(i32 noundef %11), !dbg !5766
  %13 = getelementptr inbounds %"class.std::ios_base", %"class.std::ios_base"* %8, i32 0, i32 3, !dbg !5767
  %14 = call noundef nonnull align 4 dereferenceable(4) i32* @_ZStaNRSt13_Ios_FmtflagsS_(i32* noundef nonnull align 4 dereferenceable(4) %13, i32 noundef %12), !dbg !5768
  %15 = load i32, i32* %5, align 4, !dbg !5769
  %16 = load i32, i32* %6, align 4, !dbg !5770
  %17 = call noundef i32 @_ZStanSt13_Ios_FmtflagsS_(i32 noundef %15, i32 noundef %16), !dbg !5771
  %18 = getelementptr inbounds %"class.std::ios_base", %"class.std::ios_base"* %8, i32 0, i32 3, !dbg !5772
  %19 = call noundef nonnull align 4 dereferenceable(4) i32* @_ZStoRRSt13_Ios_FmtflagsS_(i32* noundef nonnull align 4 dereferenceable(4) %18, i32 noundef %17), !dbg !5773
  %20 = load i32, i32* %7, align 4, !dbg !5774
  ret i32 %20, !dbg !5775
}

; Function Attrs: mustprogress noinline optnone uwtable
define linkonce_odr dso_local noundef nonnull align 4 dereferenceable(4) i32* @_ZStaNRSt13_Ios_FmtflagsS_(i32* noundef nonnull align 4 dereferenceable(4) %0, i32 noundef %1) #4 comdat !dbg !5776 {
  %3 = alloca i32*, align 8
  %4 = alloca i32, align 4
  store i32* %0, i32** %3, align 8
  call void @llvm.dbg.declare(metadata i32** %3, metadata !5782, metadata !DIExpression()), !dbg !5783
  store i32 %1, i32* %4, align 4
  call void @llvm.dbg.declare(metadata i32* %4, metadata !5784, metadata !DIExpression()), !dbg !5785
  %5 = load i32*, i32** %3, align 8, !dbg !5786
  %6 = load i32, i32* %5, align 4, !dbg !5786
  %7 = load i32, i32* %4, align 4, !dbg !5787
  %8 = call noundef i32 @_ZStanSt13_Ios_FmtflagsS_(i32 noundef %6, i32 noundef %7), !dbg !5788
  %9 = load i32*, i32** %3, align 8, !dbg !5789
  store i32 %8, i32* %9, align 4, !dbg !5790
  ret i32* %9, !dbg !5791
}

; Function Attrs: mustprogress noinline nounwind optnone uwtable
define linkonce_odr dso_local noundef i32 @_ZStcoSt13_Ios_Fmtflags(i32 noundef %0) #6 comdat !dbg !5792 {
  %2 = alloca i32, align 4
  store i32 %0, i32* %2, align 4
  call void @llvm.dbg.declare(metadata i32* %2, metadata !5795, metadata !DIExpression()), !dbg !5796
  %3 = load i32, i32* %2, align 4, !dbg !5797
  %4 = xor i32 %3, -1, !dbg !5798
  ret i32 %4, !dbg !5799
}

; Function Attrs: mustprogress noinline optnone uwtable
define linkonce_odr dso_local noundef nonnull align 4 dereferenceable(4) i32* @_ZStoRRSt13_Ios_FmtflagsS_(i32* noundef nonnull align 4 dereferenceable(4) %0, i32 noundef %1) #4 comdat !dbg !5800 {
  %3 = alloca i32*, align 8
  %4 = alloca i32, align 4
  store i32* %0, i32** %3, align 8
  call void @llvm.dbg.declare(metadata i32** %3, metadata !5801, metadata !DIExpression()), !dbg !5802
  store i32 %1, i32* %4, align 4
  call void @llvm.dbg.declare(metadata i32* %4, metadata !5803, metadata !DIExpression()), !dbg !5804
  %5 = load i32*, i32** %3, align 8, !dbg !5805
  %6 = load i32, i32* %5, align 4, !dbg !5805
  %7 = load i32, i32* %4, align 4, !dbg !5806
  %8 = call noundef i32 @_ZStorSt13_Ios_FmtflagsS_(i32 noundef %6, i32 noundef %7), !dbg !5807
  %9 = load i32*, i32** %3, align 8, !dbg !5808
  store i32 %8, i32* %9, align 4, !dbg !5809
  ret i32* %9, !dbg !5810
}

; Function Attrs: mustprogress noinline nounwind optnone uwtable
define linkonce_odr dso_local noundef i32 @_ZStanSt13_Ios_FmtflagsS_(i32 noundef %0, i32 noundef %1) #6 comdat !dbg !5811 {
  %3 = alloca i32, align 4
  %4 = alloca i32, align 4
  store i32 %0, i32* %3, align 4
  call void @llvm.dbg.declare(metadata i32* %3, metadata !5814, metadata !DIExpression()), !dbg !5815
  store i32 %1, i32* %4, align 4
  call void @llvm.dbg.declare(metadata i32* %4, metadata !5816, metadata !DIExpression()), !dbg !5817
  %5 = load i32, i32* %3, align 4, !dbg !5818
  %6 = load i32, i32* %4, align 4, !dbg !5819
  %7 = and i32 %5, %6, !dbg !5820
  ret i32 %7, !dbg !5821
}

; Function Attrs: mustprogress noinline nounwind optnone uwtable
define linkonce_odr dso_local noundef i32 @_ZStorSt13_Ios_FmtflagsS_(i32 noundef %0, i32 noundef %1) #6 comdat !dbg !5822 {
  %3 = alloca i32, align 4
  %4 = alloca i32, align 4
  store i32 %0, i32* %3, align 4
  call void @llvm.dbg.declare(metadata i32* %3, metadata !5823, metadata !DIExpression()), !dbg !5824
  store i32 %1, i32* %4, align 4
  call void @llvm.dbg.declare(metadata i32* %4, metadata !5825, metadata !DIExpression()), !dbg !5826
  %5 = load i32, i32* %3, align 4, !dbg !5827
  %6 = load i32, i32* %4, align 4, !dbg !5828
  %7 = or i32 %5, %6, !dbg !5829
  ret i32 %7, !dbg !5830
}

; Function Attrs: mustprogress noinline nounwind optnone uwtable
define linkonce_odr dso_local noundef nonnull align 8 dereferenceable(8) i64* @_ZNSt14__array_traitsImLm3EE6_S_refERA3_Kmm([3 x i64]* noundef nonnull align 8 dereferenceable(24) %0, i64 noundef %1) #6 comdat align 2 !dbg !5831 {
  %3 = alloca [3 x i64]*, align 8
  %4 = alloca i64, align 8
  store [3 x i64]* %0, [3 x i64]** %3, align 8
  call void @llvm.dbg.declare(metadata [3 x i64]** %3, metadata !5832, metadata !DIExpression()), !dbg !5833
  store i64 %1, i64* %4, align 8
  call void @llvm.dbg.declare(metadata i64* %4, metadata !5834, metadata !DIExpression()), !dbg !5835
  %5 = load [3 x i64]*, [3 x i64]** %3, align 8, !dbg !5836
  %6 = load i64, i64* %4, align 8, !dbg !5837
  %7 = getelementptr inbounds [3 x i64], [3 x i64]* %5, i64 0, i64 %6, !dbg !5836
  ret i64* %7, !dbg !5838
}

; Function Attrs: mustprogress noinline nounwind optnone uwtable
define linkonce_odr dso_local noundef zeroext i1 @_ZNKSt19_Optional_base_implIbSt14_Optional_baseIbLb1ELb1EEE13_M_is_engagedEv(%"class.std::_Optional_base_impl"* noundef nonnull align 1 dereferenceable(1) %0) #6 comdat align 2 !dbg !5839 {
  %2 = alloca %"class.std::_Optional_base_impl"*, align 8
  store %"class.std::_Optional_base_impl"* %0, %"class.std::_Optional_base_impl"** %2, align 8
  call void @llvm.dbg.declare(metadata %"class.std::_Optional_base_impl"** %2, metadata !5840, metadata !DIExpression()), !dbg !5841
  %3 = load %"class.std::_Optional_base_impl"*, %"class.std::_Optional_base_impl"** %2, align 8
  %4 = bitcast %"class.std::_Optional_base_impl"* %3 to %"struct.std::_Optional_base"*, !dbg !5842
  %5 = getelementptr inbounds %"struct.std::_Optional_base", %"struct.std::_Optional_base"* %4, i32 0, i32 0, !dbg !5843
  %6 = bitcast %"struct.std::_Optional_payload"* %5 to %"struct.std::_Optional_payload_base"*, !dbg !5842
  %7 = getelementptr inbounds %"struct.std::_Optional_payload_base", %"struct.std::_Optional_payload_base"* %6, i32 0, i32 1, !dbg !5844
  %8 = load i8, i8* %7, align 1, !dbg !5844
  %9 = trunc i8 %8 to i1, !dbg !5844
  ret i1 %9, !dbg !5845
}

; Function Attrs: mustprogress noinline nounwind optnone uwtable
define linkonce_odr dso_local noundef nonnull align 1 dereferenceable(1) i8* @_ZSt7forwardIbEOT_RNSt16remove_referenceIS0_E4typeE(i8* noundef nonnull align 1 dereferenceable(1) %0) #6 comdat !dbg !5846 {
  %2 = alloca i8*, align 8
  store i8* %0, i8** %2, align 8
  call void @llvm.dbg.declare(metadata i8** %2, metadata !5853, metadata !DIExpression()), !dbg !5854
  %3 = load i8*, i8** %2, align 8, !dbg !5855
  ret i8* %3, !dbg !5856
}

; Function Attrs: noinline optnone uwtable
define linkonce_odr dso_local void @_ZNSt14_Optional_baseIbLb1ELb1EEC2IJbELb0EEESt10in_place_tDpOT_(%"struct.std::_Optional_base"* noundef nonnull align 1 dereferenceable(2) %0, i8* noundef nonnull align 1 dereferenceable(1) %1) unnamed_addr #12 comdat align 2 !dbg !5857 {
  %3 = alloca %"struct.std::in_place_t", align 1
  %4 = alloca %"struct.std::_Optional_base"*, align 8
  %5 = alloca i8*, align 8
  %6 = alloca %"struct.std::in_place_t", align 1
  store %"struct.std::_Optional_base"* %0, %"struct.std::_Optional_base"** %4, align 8
  call void @llvm.dbg.declare(metadata %"struct.std::_Optional_base"** %4, metadata !5866, metadata !DIExpression()), !dbg !5867
  call void @llvm.dbg.declare(metadata %"struct.std::in_place_t"* %3, metadata !5868, metadata !DIExpression()), !dbg !5869
  store i8* %1, i8** %5, align 8
  call void @llvm.dbg.declare(metadata i8** %5, metadata !5870, metadata !DIExpression()), !dbg !5871
  %7 = load %"struct.std::_Optional_base"*, %"struct.std::_Optional_base"** %4, align 8
  %8 = bitcast %"struct.std::_Optional_base"* %7 to %"class.std::_Optional_base_impl"*, !dbg !5872
  %9 = getelementptr inbounds %"struct.std::_Optional_base", %"struct.std::_Optional_base"* %7, i32 0, i32 0, !dbg !5873
  %10 = load i8*, i8** %5, align 8, !dbg !5874
  %11 = call noundef nonnull align 1 dereferenceable(1) i8* @_ZSt7forwardIbEOT_RNSt16remove_referenceIS0_E4typeE(i8* noundef nonnull align 1 dereferenceable(1) %10) #3, !dbg !5875
  call void @_ZNSt17_Optional_payloadIbLb1ELb1ELb1EECI2St22_Optional_payload_baseIbEIJbEEESt10in_place_tDpOT_(%"struct.std::_Optional_payload"* noundef nonnull align 1 dereferenceable(2) %9, i8* noundef nonnull align 1 dereferenceable(1) %11), !dbg !5873
  ret void, !dbg !5876
}

; Function Attrs: noinline noreturn nounwind
define linkonce_odr hidden void @__clang_call_terminate(i8* %0) #13 comdat {
  %2 = call i8* @__cxa_begin_catch(i8* %0) #3
  call void @_ZSt9terminatev() #20
  unreachable
}

declare i8* @__cxa_begin_catch(i8*)

declare void @_ZSt9terminatev()

; Function Attrs: noinline optnone uwtable
define linkonce_odr dso_local void @_ZNSt17_Optional_payloadIbLb1ELb1ELb1EECI2St22_Optional_payload_baseIbEIJbEEESt10in_place_tDpOT_(%"struct.std::_Optional_payload"* noundef nonnull align 1 dereferenceable(2) %0, i8* noundef nonnull align 1 dereferenceable(1) %1) unnamed_addr #12 comdat align 2 !dbg !5877 {
  %3 = alloca %"struct.std::in_place_t", align 1
  %4 = alloca %"struct.std::_Optional_payload"*, align 8
  %5 = alloca i8*, align 8
  store %"struct.std::_Optional_payload"* %0, %"struct.std::_Optional_payload"** %4, align 8
  call void @llvm.dbg.declare(metadata %"struct.std::_Optional_payload"** %4, metadata !5881, metadata !DIExpression()), !dbg !5883
  call void @llvm.dbg.declare(metadata %"struct.std::in_place_t"* %3, metadata !5884, metadata !DIExpression()), !dbg !5883
  store i8* %1, i8** %5, align 8
  call void @llvm.dbg.declare(metadata i8** %5, metadata !5885, metadata !DIExpression()), !dbg !5883
  %6 = load %"struct.std::_Optional_payload"*, %"struct.std::_Optional_payload"** %4, align 8
  %7 = bitcast %"struct.std::_Optional_payload"* %6 to %"struct.std::_Optional_payload_base"*, !dbg !5886
  %8 = load i8*, i8** %5, align 8, !dbg !5886
  call void @_ZNSt22_Optional_payload_baseIbEC2IJbEEESt10in_place_tDpOT_(%"struct.std::_Optional_payload_base"* noundef nonnull align 1 dereferenceable(2) %7, i8* noundef nonnull align 1 dereferenceable(1) %8), !dbg !5886
  ret void, !dbg !5886
}

; Function Attrs: noinline optnone uwtable
define linkonce_odr dso_local void @_ZNSt22_Optional_payload_baseIbEC2IJbEEESt10in_place_tDpOT_(%"struct.std::_Optional_payload_base"* noundef nonnull align 1 dereferenceable(2) %0, i8* noundef nonnull align 1 dereferenceable(1) %1) unnamed_addr #12 comdat align 2 !dbg !5887 {
  %3 = alloca %"struct.std::in_place_t", align 1
  %4 = alloca %"struct.std::_Optional_payload_base"*, align 8
  %5 = alloca i8*, align 8
  %6 = alloca %"struct.std::in_place_t", align 1
  store %"struct.std::_Optional_payload_base"* %0, %"struct.std::_Optional_payload_base"** %4, align 8
  call void @llvm.dbg.declare(metadata %"struct.std::_Optional_payload_base"** %4, metadata !5892, metadata !DIExpression()), !dbg !5894
  call void @llvm.dbg.declare(metadata %"struct.std::in_place_t"* %3, metadata !5895, metadata !DIExpression()), !dbg !5896
  store i8* %1, i8** %5, align 8
  call void @llvm.dbg.declare(metadata i8** %5, metadata !5897, metadata !DIExpression()), !dbg !5898
  %7 = load %"struct.std::_Optional_payload_base"*, %"struct.std::_Optional_payload_base"** %4, align 8
  %8 = getelementptr inbounds %"struct.std::_Optional_payload_base", %"struct.std::_Optional_payload_base"* %7, i32 0, i32 0, !dbg !5899
  %9 = load i8*, i8** %5, align 8, !dbg !5900
  %10 = call noundef nonnull align 1 dereferenceable(1) i8* @_ZSt7forwardIbEOT_RNSt16remove_referenceIS0_E4typeE(i8* noundef nonnull align 1 dereferenceable(1) %9) #3, !dbg !5901
  call void @_ZNSt22_Optional_payload_baseIbE8_StorageIbLb1EEC2IJbEEESt10in_place_tDpOT_(%"union.std::_Optional_payload_base<bool>::_Storage"* noundef nonnull align 1 dereferenceable(1) %8, i8* noundef nonnull align 1 dereferenceable(1) %10), !dbg !5899
  %11 = getelementptr inbounds %"struct.std::_Optional_payload_base", %"struct.std::_Optional_payload_base"* %7, i32 0, i32 1, !dbg !5902
  store i8 1, i8* %11, align 1, !dbg !5902
  ret void, !dbg !5903
}

; Function Attrs: noinline nounwind optnone uwtable
define linkonce_odr dso_local void @_ZNSt22_Optional_payload_baseIbE8_StorageIbLb1EEC2IJbEEESt10in_place_tDpOT_(%"union.std::_Optional_payload_base<bool>::_Storage"* noundef nonnull align 1 dereferenceable(1) %0, i8* noundef nonnull align 1 dereferenceable(1) %1) unnamed_addr #8 comdat align 2 !dbg !5904 {
  %3 = alloca %"struct.std::in_place_t", align 1
  %4 = alloca %"union.std::_Optional_payload_base<bool>::_Storage"*, align 8
  %5 = alloca i8*, align 8
  store %"union.std::_Optional_payload_base<bool>::_Storage"* %0, %"union.std::_Optional_payload_base<bool>::_Storage"** %4, align 8
  call void @llvm.dbg.declare(metadata %"union.std::_Optional_payload_base<bool>::_Storage"** %4, metadata !5908, metadata !DIExpression()), !dbg !5910
  call void @llvm.dbg.declare(metadata %"struct.std::in_place_t"* %3, metadata !5911, metadata !DIExpression()), !dbg !5912
  store i8* %1, i8** %5, align 8
  call void @llvm.dbg.declare(metadata i8** %5, metadata !5913, metadata !DIExpression()), !dbg !5914
  %6 = load %"union.std::_Optional_payload_base<bool>::_Storage"*, %"union.std::_Optional_payload_base<bool>::_Storage"** %4, align 8
  %7 = bitcast %"union.std::_Optional_payload_base<bool>::_Storage"* %6 to i8*, !dbg !5915
  %8 = load i8*, i8** %5, align 8, !dbg !5916
  %9 = call noundef nonnull align 1 dereferenceable(1) i8* @_ZSt7forwardIbEOT_RNSt16remove_referenceIS0_E4typeE(i8* noundef nonnull align 1 dereferenceable(1) %8) #3, !dbg !5917
  %10 = load i8, i8* %9, align 1, !dbg !5917
  %11 = trunc i8 %10 to i1, !dbg !5917
  %12 = zext i1 %11 to i8, !dbg !5915
  store i8 %12, i8* %7, align 1, !dbg !5915
  ret void, !dbg !5918
}

; Function Attrs: mustprogress noinline nounwind optnone uwtable
define linkonce_odr dso_local noundef nonnull align 1 dereferenceable(1) i8* @_ZNSt19_Optional_base_implIbSt14_Optional_baseIbLb1ELb1EEE6_M_getEv(%"class.std::_Optional_base_impl"* noundef nonnull align 1 dereferenceable(1) %0) #6 comdat align 2 !dbg !5919 {
  %2 = alloca %"class.std::_Optional_base_impl"*, align 8
  store %"class.std::_Optional_base_impl"* %0, %"class.std::_Optional_base_impl"** %2, align 8
  call void @llvm.dbg.declare(metadata %"class.std::_Optional_base_impl"** %2, metadata !5920, metadata !DIExpression()), !dbg !5922
  %3 = load %"class.std::_Optional_base_impl"*, %"class.std::_Optional_base_impl"** %2, align 8
  br label %4, !dbg !5923

4:                                                ; preds = %1
  br label %5, !dbg !5924

5:                                                ; preds = %4
  br label %6, !dbg !5924

6:                                                ; preds = %5
  %7 = bitcast %"class.std::_Optional_base_impl"* %3 to %"struct.std::_Optional_base"*, !dbg !5926
  %8 = getelementptr inbounds %"struct.std::_Optional_base", %"struct.std::_Optional_base"* %7, i32 0, i32 0, !dbg !5927
  %9 = bitcast %"struct.std::_Optional_payload"* %8 to %"struct.std::_Optional_payload_base"*, !dbg !5926
  %10 = call noundef nonnull align 1 dereferenceable(1) i8* @_ZNSt22_Optional_payload_baseIbE6_M_getEv(%"struct.std::_Optional_payload_base"* noundef nonnull align 1 dereferenceable(2) %9) #3, !dbg !5928
  ret i8* %10, !dbg !5929
}

; Function Attrs: mustprogress noinline nounwind optnone uwtable
define linkonce_odr dso_local noundef nonnull align 1 dereferenceable(1) i8* @_ZNSt22_Optional_payload_baseIbE6_M_getEv(%"struct.std::_Optional_payload_base"* noundef nonnull align 1 dereferenceable(2) %0) #6 comdat align 2 !dbg !5930 {
  %2 = alloca %"struct.std::_Optional_payload_base"*, align 8
  store %"struct.std::_Optional_payload_base"* %0, %"struct.std::_Optional_payload_base"** %2, align 8
  call void @llvm.dbg.declare(metadata %"struct.std::_Optional_payload_base"** %2, metadata !5931, metadata !DIExpression()), !dbg !5932
  %3 = load %"struct.std::_Optional_payload_base"*, %"struct.std::_Optional_payload_base"** %2, align 8
  %4 = getelementptr inbounds %"struct.std::_Optional_payload_base", %"struct.std::_Optional_payload_base"* %3, i32 0, i32 0, !dbg !5933
  %5 = bitcast %"union.std::_Optional_payload_base<bool>::_Storage"* %4 to i8*, !dbg !5934
  ret i8* %5, !dbg !5935
}

; Function Attrs: mustprogress noinline nounwind optnone uwtable
define linkonce_odr dso_local noundef nonnull align 8 dereferenceable(8) %"struct.std::array"** @_ZNK9__gnu_cxx17__normal_iteratorIPKSt5arrayImLm3EESt6vectorIS2_SaIS2_EEE4baseEv(%"class.__gnu_cxx::__normal_iterator"* noundef nonnull align 8 dereferenceable(8) %0) #6 comdat align 2 !dbg !5936 {
  %2 = alloca %"class.__gnu_cxx::__normal_iterator"*, align 8
  store %"class.__gnu_cxx::__normal_iterator"* %0, %"class.__gnu_cxx::__normal_iterator"** %2, align 8
  call void @llvm.dbg.declare(metadata %"class.__gnu_cxx::__normal_iterator"** %2, metadata !5937, metadata !DIExpression()), !dbg !5938
  %3 = load %"class.__gnu_cxx::__normal_iterator"*, %"class.__gnu_cxx::__normal_iterator"** %2, align 8
  %4 = getelementptr inbounds %"class.__gnu_cxx::__normal_iterator", %"class.__gnu_cxx::__normal_iterator"* %3, i32 0, i32 0, !dbg !5939
  ret %"struct.std::array"** %4, !dbg !5940
}

; Function Attrs: mustprogress noinline nounwind optnone uwtable
define linkonce_odr dso_local noundef nonnull align 8 dereferenceable(24) %"struct.std::array"* @_ZSt7forwardIRKSt5arrayImLm3EEEOT_RNSt16remove_referenceIS4_E4typeE(%"struct.std::array"* noundef nonnull align 8 dereferenceable(24) %0) #6 comdat !dbg !5941 {
  %2 = alloca %"struct.std::array"*, align 8
  store %"struct.std::array"* %0, %"struct.std::array"** %2, align 8
  call void @llvm.dbg.declare(metadata %"struct.std::array"** %2, metadata !5949, metadata !DIExpression()), !dbg !5950
  %3 = load %"struct.std::array"*, %"struct.std::array"** %2, align 8, !dbg !5951
  ret %"struct.std::array"* %3, !dbg !5952
}

; Function Attrs: noinline optnone uwtable
define linkonce_odr dso_local void @_ZNSt14_Optional_baseISt5arrayImLm3EELb1ELb1EEC2IJRKS1_ELb0EEESt10in_place_tDpOT_(%"struct.std::_Optional_base.12"* noundef nonnull align 8 dereferenceable(32) %0, %"struct.std::array"* noundef nonnull align 8 dereferenceable(24) %1) unnamed_addr #12 comdat align 2 !dbg !5953 {
  %3 = alloca %"struct.std::in_place_t", align 1
  %4 = alloca %"struct.std::_Optional_base.12"*, align 8
  %5 = alloca %"struct.std::array"*, align 8
  %6 = alloca %"struct.std::in_place_t", align 1
  store %"struct.std::_Optional_base.12"* %0, %"struct.std::_Optional_base.12"** %4, align 8
  call void @llvm.dbg.declare(metadata %"struct.std::_Optional_base.12"** %4, metadata !5961, metadata !DIExpression()), !dbg !5962
  call void @llvm.dbg.declare(metadata %"struct.std::in_place_t"* %3, metadata !5963, metadata !DIExpression()), !dbg !5964
  store %"struct.std::array"* %1, %"struct.std::array"** %5, align 8
  call void @llvm.dbg.declare(metadata %"struct.std::array"** %5, metadata !5965, metadata !DIExpression()), !dbg !5966
  %7 = load %"struct.std::_Optional_base.12"*, %"struct.std::_Optional_base.12"** %4, align 8
  %8 = bitcast %"struct.std::_Optional_base.12"* %7 to %"class.std::_Optional_base_impl.13"*, !dbg !5967
  %9 = getelementptr inbounds %"struct.std::_Optional_base.12", %"struct.std::_Optional_base.12"* %7, i32 0, i32 0, !dbg !5968
  %10 = load %"struct.std::array"*, %"struct.std::array"** %5, align 8, !dbg !5969
  %11 = call noundef nonnull align 8 dereferenceable(24) %"struct.std::array"* @_ZSt7forwardIRKSt5arrayImLm3EEEOT_RNSt16remove_referenceIS4_E4typeE(%"struct.std::array"* noundef nonnull align 8 dereferenceable(24) %10) #3, !dbg !5970
  call void @_ZNSt17_Optional_payloadISt5arrayImLm3EELb1ELb1ELb1EECI2St22_Optional_payload_baseIS1_EIJRKS1_EEESt10in_place_tDpOT_(%"struct.std::_Optional_payload.14"* noundef nonnull align 8 dereferenceable(25) %9, %"struct.std::array"* noundef nonnull align 8 dereferenceable(24) %11), !dbg !5968
  ret void, !dbg !5971
}

; Function Attrs: noinline optnone uwtable
define linkonce_odr dso_local void @_ZNSt17_Optional_payloadISt5arrayImLm3EELb1ELb1ELb1EECI2St22_Optional_payload_baseIS1_EIJRKS1_EEESt10in_place_tDpOT_(%"struct.std::_Optional_payload.14"* noundef nonnull align 8 dereferenceable(25) %0, %"struct.std::array"* noundef nonnull align 8 dereferenceable(24) %1) unnamed_addr #12 comdat align 2 !dbg !5972 {
  %3 = alloca %"struct.std::in_place_t", align 1
  %4 = alloca %"struct.std::_Optional_payload.14"*, align 8
  %5 = alloca %"struct.std::array"*, align 8
  store %"struct.std::_Optional_payload.14"* %0, %"struct.std::_Optional_payload.14"** %4, align 8
  call void @llvm.dbg.declare(metadata %"struct.std::_Optional_payload.14"** %4, metadata !5976, metadata !DIExpression()), !dbg !5978
  call void @llvm.dbg.declare(metadata %"struct.std::in_place_t"* %3, metadata !5979, metadata !DIExpression()), !dbg !5978
  store %"struct.std::array"* %1, %"struct.std::array"** %5, align 8
  call void @llvm.dbg.declare(metadata %"struct.std::array"** %5, metadata !5980, metadata !DIExpression()), !dbg !5978
  %6 = load %"struct.std::_Optional_payload.14"*, %"struct.std::_Optional_payload.14"** %4, align 8
  %7 = bitcast %"struct.std::_Optional_payload.14"* %6 to %"struct.std::_Optional_payload_base.15"*, !dbg !5981
  %8 = load %"struct.std::array"*, %"struct.std::array"** %5, align 8, !dbg !5981
  call void @_ZNSt22_Optional_payload_baseISt5arrayImLm3EEEC2IJRKS1_EEESt10in_place_tDpOT_(%"struct.std::_Optional_payload_base.15"* noundef nonnull align 8 dereferenceable(25) %7, %"struct.std::array"* noundef nonnull align 8 dereferenceable(24) %8), !dbg !5981
  ret void, !dbg !5981
}

; Function Attrs: noinline optnone uwtable
define linkonce_odr dso_local void @_ZNSt22_Optional_payload_baseISt5arrayImLm3EEEC2IJRKS1_EEESt10in_place_tDpOT_(%"struct.std::_Optional_payload_base.15"* noundef nonnull align 8 dereferenceable(25) %0, %"struct.std::array"* noundef nonnull align 8 dereferenceable(24) %1) unnamed_addr #12 comdat align 2 !dbg !5982 {
  %3 = alloca %"struct.std::in_place_t", align 1
  %4 = alloca %"struct.std::_Optional_payload_base.15"*, align 8
  %5 = alloca %"struct.std::array"*, align 8
  %6 = alloca %"struct.std::in_place_t", align 1
  store %"struct.std::_Optional_payload_base.15"* %0, %"struct.std::_Optional_payload_base.15"** %4, align 8
  call void @llvm.dbg.declare(metadata %"struct.std::_Optional_payload_base.15"** %4, metadata !5987, metadata !DIExpression()), !dbg !5988
  call void @llvm.dbg.declare(metadata %"struct.std::in_place_t"* %3, metadata !5989, metadata !DIExpression()), !dbg !5990
  store %"struct.std::array"* %1, %"struct.std::array"** %5, align 8
  call void @llvm.dbg.declare(metadata %"struct.std::array"** %5, metadata !5991, metadata !DIExpression()), !dbg !5992
  %7 = load %"struct.std::_Optional_payload_base.15"*, %"struct.std::_Optional_payload_base.15"** %4, align 8
  %8 = getelementptr inbounds %"struct.std::_Optional_payload_base.15", %"struct.std::_Optional_payload_base.15"* %7, i32 0, i32 0, !dbg !5993
  %9 = load %"struct.std::array"*, %"struct.std::array"** %5, align 8, !dbg !5994
  %10 = call noundef nonnull align 8 dereferenceable(24) %"struct.std::array"* @_ZSt7forwardIRKSt5arrayImLm3EEEOT_RNSt16remove_referenceIS4_E4typeE(%"struct.std::array"* noundef nonnull align 8 dereferenceable(24) %9) #3, !dbg !5995
  call void @_ZNSt22_Optional_payload_baseISt5arrayImLm3EEE8_StorageIS1_Lb1EEC2IJRKS1_EEESt10in_place_tDpOT_(%"union.std::_Optional_payload_base<std::array<unsigned long, 3>>::_Storage"* noundef nonnull align 8 dereferenceable(24) %8, %"struct.std::array"* noundef nonnull align 8 dereferenceable(24) %10), !dbg !5993
  %11 = getelementptr inbounds %"struct.std::_Optional_payload_base.15", %"struct.std::_Optional_payload_base.15"* %7, i32 0, i32 1, !dbg !5996
  store i8 1, i8* %11, align 8, !dbg !5996
  ret void, !dbg !5997
}

; Function Attrs: noinline nounwind optnone uwtable
define linkonce_odr dso_local void @_ZNSt22_Optional_payload_baseISt5arrayImLm3EEE8_StorageIS1_Lb1EEC2IJRKS1_EEESt10in_place_tDpOT_(%"union.std::_Optional_payload_base<std::array<unsigned long, 3>>::_Storage"* noundef nonnull align 8 dereferenceable(24) %0, %"struct.std::array"* noundef nonnull align 8 dereferenceable(24) %1) unnamed_addr #8 comdat align 2 !dbg !5998 {
  %3 = alloca %"struct.std::in_place_t", align 1
  %4 = alloca %"union.std::_Optional_payload_base<std::array<unsigned long, 3>>::_Storage"*, align 8
  %5 = alloca %"struct.std::array"*, align 8
  store %"union.std::_Optional_payload_base<std::array<unsigned long, 3>>::_Storage"* %0, %"union.std::_Optional_payload_base<std::array<unsigned long, 3>>::_Storage"** %4, align 8
  call void @llvm.dbg.declare(metadata %"union.std::_Optional_payload_base<std::array<unsigned long, 3>>::_Storage"** %4, metadata !6002, metadata !DIExpression()), !dbg !6004
  call void @llvm.dbg.declare(metadata %"struct.std::in_place_t"* %3, metadata !6005, metadata !DIExpression()), !dbg !6006
  store %"struct.std::array"* %1, %"struct.std::array"** %5, align 8
  call void @llvm.dbg.declare(metadata %"struct.std::array"** %5, metadata !6007, metadata !DIExpression()), !dbg !6008
  %6 = load %"union.std::_Optional_payload_base<std::array<unsigned long, 3>>::_Storage"*, %"union.std::_Optional_payload_base<std::array<unsigned long, 3>>::_Storage"** %4, align 8
  %7 = bitcast %"union.std::_Optional_payload_base<std::array<unsigned long, 3>>::_Storage"* %6 to %"struct.std::array"*, !dbg !6009
  %8 = load %"struct.std::array"*, %"struct.std::array"** %5, align 8, !dbg !6010
  %9 = call noundef nonnull align 8 dereferenceable(24) %"struct.std::array"* @_ZSt7forwardIRKSt5arrayImLm3EEEOT_RNSt16remove_referenceIS4_E4typeE(%"struct.std::array"* noundef nonnull align 8 dereferenceable(24) %8) #3, !dbg !6011
  %10 = bitcast %"struct.std::array"* %7 to i8*, !dbg !6009
  %11 = bitcast %"struct.std::array"* %9 to i8*, !dbg !6009
  call void @llvm.memcpy.p0i8.p0i8.i64(i8* align 8 %10, i8* align 8 %11, i64 24, i1 false), !dbg !6009
  ret void, !dbg !6012
}

; Function Attrs: noinline nounwind optnone uwtable
define linkonce_odr dso_local void @_ZNSt14_Optional_baseISt5arrayImLm3EELb1ELb1EEC2Ev(%"struct.std::_Optional_base.12"* noundef nonnull align 8 dereferenceable(32) %0) unnamed_addr #8 comdat align 2 !dbg !6013 {
  %2 = alloca %"struct.std::_Optional_base.12"*, align 8
  store %"struct.std::_Optional_base.12"* %0, %"struct.std::_Optional_base.12"** %2, align 8
  call void @llvm.dbg.declare(metadata %"struct.std::_Optional_base.12"** %2, metadata !6014, metadata !DIExpression()), !dbg !6015
  %3 = load %"struct.std::_Optional_base.12"*, %"struct.std::_Optional_base.12"** %2, align 8
  %4 = bitcast %"struct.std::_Optional_base.12"* %3 to %"class.std::_Optional_base_impl.13"*, !dbg !6016
  %5 = getelementptr inbounds %"struct.std::_Optional_base.12", %"struct.std::_Optional_base.12"* %3, i32 0, i32 0, !dbg !6017
  call void @_ZNSt17_Optional_payloadISt5arrayImLm3EELb1ELb1ELb1EEC2Ev(%"struct.std::_Optional_payload.14"* noundef nonnull align 8 dereferenceable(25) %5) #3, !dbg !6017
  ret void, !dbg !6016
}

; Function Attrs: noinline nounwind optnone uwtable
define linkonce_odr dso_local void @_ZNSt17_Optional_payloadISt5arrayImLm3EELb1ELb1ELb1EEC2Ev(%"struct.std::_Optional_payload.14"* noundef nonnull align 8 dereferenceable(25) %0) unnamed_addr #8 comdat align 2 !dbg !6018 {
  %2 = alloca %"struct.std::_Optional_payload.14"*, align 8
  store %"struct.std::_Optional_payload.14"* %0, %"struct.std::_Optional_payload.14"** %2, align 8
  call void @llvm.dbg.declare(metadata %"struct.std::_Optional_payload.14"** %2, metadata !6019, metadata !DIExpression()), !dbg !6020
  %3 = load %"struct.std::_Optional_payload.14"*, %"struct.std::_Optional_payload.14"** %2, align 8
  %4 = bitcast %"struct.std::_Optional_payload.14"* %3 to %"struct.std::_Optional_payload_base.15"*, !dbg !6021
  call void @_ZNSt22_Optional_payload_baseISt5arrayImLm3EEEC2Ev(%"struct.std::_Optional_payload_base.15"* noundef nonnull align 8 dereferenceable(25) %4) #3, !dbg !6022
  ret void, !dbg !6021
}

; Function Attrs: noinline nounwind optnone uwtable
define linkonce_odr dso_local void @_ZNSt22_Optional_payload_baseISt5arrayImLm3EEEC2Ev(%"struct.std::_Optional_payload_base.15"* noundef nonnull align 8 dereferenceable(25) %0) unnamed_addr #8 comdat align 2 !dbg !6023 {
  %2 = alloca %"struct.std::_Optional_payload_base.15"*, align 8
  store %"struct.std::_Optional_payload_base.15"* %0, %"struct.std::_Optional_payload_base.15"** %2, align 8
  call void @llvm.dbg.declare(metadata %"struct.std::_Optional_payload_base.15"** %2, metadata !6024, metadata !DIExpression()), !dbg !6025
  %3 = load %"struct.std::_Optional_payload_base.15"*, %"struct.std::_Optional_payload_base.15"** %2, align 8
  %4 = getelementptr inbounds %"struct.std::_Optional_payload_base.15", %"struct.std::_Optional_payload_base.15"* %3, i32 0, i32 0, !dbg !6026
  call void @_ZNSt22_Optional_payload_baseISt5arrayImLm3EEE8_StorageIS1_Lb1EEC2Ev(%"union.std::_Optional_payload_base<std::array<unsigned long, 3>>::_Storage"* noundef nonnull align 8 dereferenceable(24) %4) #3, !dbg !6026
  %5 = getelementptr inbounds %"struct.std::_Optional_payload_base.15", %"struct.std::_Optional_payload_base.15"* %3, i32 0, i32 1, !dbg !6027
  store i8 0, i8* %5, align 8, !dbg !6027
  ret void, !dbg !6028
}

; Function Attrs: noinline nounwind optnone uwtable
define linkonce_odr dso_local void @_ZNSt22_Optional_payload_baseISt5arrayImLm3EEE8_StorageIS1_Lb1EEC2Ev(%"union.std::_Optional_payload_base<std::array<unsigned long, 3>>::_Storage"* noundef nonnull align 8 dereferenceable(24) %0) unnamed_addr #8 comdat align 2 !dbg !6029 {
  %2 = alloca %"union.std::_Optional_payload_base<std::array<unsigned long, 3>>::_Storage"*, align 8
  store %"union.std::_Optional_payload_base<std::array<unsigned long, 3>>::_Storage"* %0, %"union.std::_Optional_payload_base<std::array<unsigned long, 3>>::_Storage"** %2, align 8
  call void @llvm.dbg.declare(metadata %"union.std::_Optional_payload_base<std::array<unsigned long, 3>>::_Storage"** %2, metadata !6030, metadata !DIExpression()), !dbg !6031
  %3 = load %"union.std::_Optional_payload_base<std::array<unsigned long, 3>>::_Storage"*, %"union.std::_Optional_payload_base<std::array<unsigned long, 3>>::_Storage"** %2, align 8
  %4 = bitcast %"union.std::_Optional_payload_base<std::array<unsigned long, 3>>::_Storage"* %3 to %"struct.std::_Optional_payload_base<std::array<unsigned long, 3>>::_Empty_byte"*, !dbg !6032
  ret void, !dbg !6033
}

; Function Attrs: nounwind
declare i32 @__cxa_guard_acquire(i64*) #3

; Function Attrs: noinline optnone uwtable
define linkonce_odr dso_local void @_ZN11GraphEditorC2Ev(%class.GraphEditor* noundef nonnull align 8 dereferenceable(82) %0) unnamed_addr #12 comdat align 2 personality i8* bitcast (i32 (...)* @__gxx_personality_v0 to i8*) !dbg !6034 {
  %2 = alloca %class.GraphEditor*, align 8
  %3 = alloca i32, align 4
  %4 = alloca %"class.std::__cxx11::basic_string", align 8
  %5 = alloca %"class.std::__cxx11::basic_string", align 8
  %6 = alloca %"class.std::__cxx11::basic_string", align 8
  %7 = alloca i8*, align 8
  %8 = alloca i32, align 4
  store %class.GraphEditor* %0, %class.GraphEditor** %2, align 8
  call void @llvm.dbg.declare(metadata %class.GraphEditor** %2, metadata !6035, metadata !DIExpression()), !dbg !6036
  %9 = load %class.GraphEditor*, %class.GraphEditor** %2, align 8
  %10 = getelementptr inbounds %class.GraphEditor, %class.GraphEditor* %9, i32 0, i32 0, !dbg !6037
  call void @_ZNSt13unordered_mapIlSt3mapIllSt4lessIlESaISt4pairIKllEEESt4hashIlESt8equal_toIlESaIS3_IS4_S7_EEEC2Ev(%"class.std::unordered_map"* noundef nonnull align 8 dereferenceable(56) %10) #3, !dbg !6037
  %11 = getelementptr inbounds %class.GraphEditor, %class.GraphEditor* %9, i32 0, i32 1, !dbg !6037
  call void @_ZNSt6vectorISt5arrayImLm3EESaIS1_EEC2Ev(%"class.std::vector"* noundef nonnull align 8 dereferenceable(24) %11) #3, !dbg !6037
  %12 = getelementptr inbounds %class.GraphEditor, %class.GraphEditor* %9, i32 0, i32 2, !dbg !6037
  call void @_ZNSt8optionalIbEC2Ev(%"class.std::optional"* noundef nonnull align 1 dereferenceable(2) %12) #3, !dbg !6037
  call void @llvm.dbg.declare(metadata i32* %3, metadata !6038, metadata !DIExpression()), !dbg !6041
  %13 = call i32 @getpid() #3, !dbg !6042
  store i32 %13, i32* %3, align 4, !dbg !6041
  call void @llvm.dbg.declare(metadata %"class.std::__cxx11::basic_string"* %4, metadata !6043, metadata !DIExpression()), !dbg !6046
  %14 = load i32, i32* %3, align 4, !dbg !6047
  invoke void @_ZNSt7__cxx119to_stringEi(%"class.std::__cxx11::basic_string"* sret(%"class.std::__cxx11::basic_string") align 8 %6, i32 noundef %14)
          to label %15 unwind label %22, !dbg !6048

15:                                               ; preds = %1
  invoke void @_ZStplIcSt11char_traitsIcESaIcEENSt7__cxx1112basic_stringIT_T0_T1_EEPKS5_OS8_(%"class.std::__cxx11::basic_string"* sret(%"class.std::__cxx11::basic_string") align 8 %5, i8* noundef getelementptr inbounds ([11 x i8], [11 x i8]* @.str.6, i64 0, i64 0), %"class.std::__cxx11::basic_string"* noundef nonnull align 8 dereferenceable(32) %6)
          to label %16 unwind label %26, !dbg !6049

16:                                               ; preds = %15
  invoke void @_ZStplIcSt11char_traitsIcESaIcEENSt7__cxx1112basic_stringIT_T0_T1_EEOS8_PKS5_(%"class.std::__cxx11::basic_string"* sret(%"class.std::__cxx11::basic_string") align 8 %4, %"class.std::__cxx11::basic_string"* noundef nonnull align 8 dereferenceable(32) %5, i8* noundef getelementptr inbounds ([17 x i8], [17 x i8]* @.str.7, i64 0, i64 0))
          to label %17 unwind label %30, !dbg !6050

17:                                               ; preds = %16
  call void @_ZNSt7__cxx1112basic_stringIcSt11char_traitsIcESaIcEED2Ev(%"class.std::__cxx11::basic_string"* noundef nonnull align 8 dereferenceable(32) %5) #3, !dbg !6051
  call void @_ZNSt7__cxx1112basic_stringIcSt11char_traitsIcESaIcEED2Ev(%"class.std::__cxx11::basic_string"* noundef nonnull align 8 dereferenceable(32) %6) #3, !dbg !6051
  %18 = call noundef i8* @_ZNKSt7__cxx1112basic_stringIcSt11char_traitsIcESaIcEE5c_strEv(%"class.std::__cxx11::basic_string"* noundef nonnull align 8 dereferenceable(32) %4) #3, !dbg !6052
  %19 = invoke i32 @system(i8* noundef %18)
          to label %20 unwind label %35, !dbg !6053

20:                                               ; preds = %17
  invoke void @_ZN11GraphEditor13parseMapsFileEv(%class.GraphEditor* noundef nonnull align 8 dereferenceable(82) %9)
          to label %21 unwind label %35, !dbg !6054

21:                                               ; preds = %20
  call void @_ZNSt7__cxx1112basic_stringIcSt11char_traitsIcESaIcEED2Ev(%"class.std::__cxx11::basic_string"* noundef nonnull align 8 dereferenceable(32) %4) #3, !dbg !6055
  ret void, !dbg !6055

22:                                               ; preds = %1
  %23 = landingpad { i8*, i32 }
          cleanup, !dbg !6056
  %24 = extractvalue { i8*, i32 } %23, 0, !dbg !6056
  store i8* %24, i8** %7, align 8, !dbg !6056
  %25 = extractvalue { i8*, i32 } %23, 1, !dbg !6056
  store i32 %25, i32* %8, align 4, !dbg !6056
  br label %39, !dbg !6056

26:                                               ; preds = %15
  %27 = landingpad { i8*, i32 }
          cleanup, !dbg !6056
  %28 = extractvalue { i8*, i32 } %27, 0, !dbg !6056
  store i8* %28, i8** %7, align 8, !dbg !6056
  %29 = extractvalue { i8*, i32 } %27, 1, !dbg !6056
  store i32 %29, i32* %8, align 4, !dbg !6056
  br label %34, !dbg !6056

30:                                               ; preds = %16
  %31 = landingpad { i8*, i32 }
          cleanup, !dbg !6056
  %32 = extractvalue { i8*, i32 } %31, 0, !dbg !6056
  store i8* %32, i8** %7, align 8, !dbg !6056
  %33 = extractvalue { i8*, i32 } %31, 1, !dbg !6056
  store i32 %33, i32* %8, align 4, !dbg !6056
  call void @_ZNSt7__cxx1112basic_stringIcSt11char_traitsIcESaIcEED2Ev(%"class.std::__cxx11::basic_string"* noundef nonnull align 8 dereferenceable(32) %5) #3, !dbg !6051
  br label %34, !dbg !6051

34:                                               ; preds = %30, %26
  call void @_ZNSt7__cxx1112basic_stringIcSt11char_traitsIcESaIcEED2Ev(%"class.std::__cxx11::basic_string"* noundef nonnull align 8 dereferenceable(32) %6) #3, !dbg !6051
  br label %39, !dbg !6051

35:                                               ; preds = %20, %17
  %36 = landingpad { i8*, i32 }
          cleanup, !dbg !6056
  %37 = extractvalue { i8*, i32 } %36, 0, !dbg !6056
  store i8* %37, i8** %7, align 8, !dbg !6056
  %38 = extractvalue { i8*, i32 } %36, 1, !dbg !6056
  store i32 %38, i32* %8, align 4, !dbg !6056
  call void @_ZNSt7__cxx1112basic_stringIcSt11char_traitsIcESaIcEED2Ev(%"class.std::__cxx11::basic_string"* noundef nonnull align 8 dereferenceable(32) %4) #3, !dbg !6055
  br label %39, !dbg !6055

39:                                               ; preds = %35, %34, %22
  call void @_ZNSt6vectorISt5arrayImLm3EESaIS1_EED2Ev(%"class.std::vector"* noundef nonnull align 8 dereferenceable(24) %11) #3, !dbg !6056
  call void @_ZNSt13unordered_mapIlSt3mapIllSt4lessIlESaISt4pairIKllEEESt4hashIlESt8equal_toIlESaIS3_IS4_S7_EEED2Ev(%"class.std::unordered_map"* noundef nonnull align 8 dereferenceable(56) %10) #3, !dbg !6056
  br label %40, !dbg !6056

40:                                               ; preds = %39
  %41 = load i8*, i8** %7, align 8, !dbg !6056
  %42 = load i32, i32* %8, align 4, !dbg !6056
  %43 = insertvalue { i8*, i32 } undef, i8* %41, 0, !dbg !6056
  %44 = insertvalue { i8*, i32 } %43, i32 %42, 1, !dbg !6056
  resume { i8*, i32 } %44, !dbg !6056
}

; Function Attrs: noinline nounwind optnone uwtable
define linkonce_odr dso_local void @_ZN11GraphEditorD2Ev(%class.GraphEditor* noundef nonnull align 8 dereferenceable(82) %0) unnamed_addr #8 comdat align 2 personality i8* bitcast (i32 (...)* @__gxx_personality_v0 to i8*) !dbg !6057 {
  %2 = alloca %class.GraphEditor*, align 8
  %3 = alloca i8*, align 8
  %4 = alloca i32, align 4
  store %class.GraphEditor* %0, %class.GraphEditor** %2, align 8
  call void @llvm.dbg.declare(metadata %class.GraphEditor** %2, metadata !6058, metadata !DIExpression()), !dbg !6059
  %5 = load %class.GraphEditor*, %class.GraphEditor** %2, align 8
  invoke void @_ZNK11GraphEditor10writeGraphEv(%class.GraphEditor* noundef nonnull align 8 dereferenceable(82) %5)
          to label %6 unwind label %9, !dbg !6060

6:                                                ; preds = %1
  %7 = getelementptr inbounds %class.GraphEditor, %class.GraphEditor* %5, i32 0, i32 1, !dbg !6062
  call void @_ZNSt6vectorISt5arrayImLm3EESaIS1_EED2Ev(%"class.std::vector"* noundef nonnull align 8 dereferenceable(24) %7) #3, !dbg !6062
  %8 = getelementptr inbounds %class.GraphEditor, %class.GraphEditor* %5, i32 0, i32 0, !dbg !6062
  call void @_ZNSt13unordered_mapIlSt3mapIllSt4lessIlESaISt4pairIKllEEESt4hashIlESt8equal_toIlESaIS3_IS4_S7_EEED2Ev(%"class.std::unordered_map"* noundef nonnull align 8 dereferenceable(56) %8) #3, !dbg !6062
  ret void, !dbg !6063

9:                                                ; preds = %1
  %10 = landingpad { i8*, i32 }
          catch i8* null, !dbg !6062
  %11 = extractvalue { i8*, i32 } %10, 0, !dbg !6062
  store i8* %11, i8** %3, align 8, !dbg !6062
  %12 = extractvalue { i8*, i32 } %10, 1, !dbg !6062
  store i32 %12, i32* %4, align 4, !dbg !6062
  %13 = getelementptr inbounds %class.GraphEditor, %class.GraphEditor* %5, i32 0, i32 1, !dbg !6062
  call void @_ZNSt6vectorISt5arrayImLm3EESaIS1_EED2Ev(%"class.std::vector"* noundef nonnull align 8 dereferenceable(24) %13) #3, !dbg !6062
  %14 = getelementptr inbounds %class.GraphEditor, %class.GraphEditor* %5, i32 0, i32 0, !dbg !6062
  call void @_ZNSt13unordered_mapIlSt3mapIllSt4lessIlESaISt4pairIKllEEESt4hashIlESt8equal_toIlESaIS3_IS4_S7_EEED2Ev(%"class.std::unordered_map"* noundef nonnull align 8 dereferenceable(56) %14) #3, !dbg !6062
  br label %15, !dbg !6062

15:                                               ; preds = %9
  %16 = load i8*, i8** %3, align 8, !dbg !6062
  call void @__clang_call_terminate(i8* %16) #20, !dbg !6062
  unreachable, !dbg !6062
}

; Function Attrs: nounwind
declare void @__cxa_guard_abort(i64*) #3

; Function Attrs: nounwind
declare void @__cxa_guard_release(i64*) #3

; Function Attrs: noinline nounwind optnone uwtable
define linkonce_odr dso_local void @_ZNSt13unordered_mapIlSt3mapIllSt4lessIlESaISt4pairIKllEEESt4hashIlESt8equal_toIlESaIS3_IS4_S7_EEEC2Ev(%"class.std::unordered_map"* noundef nonnull align 8 dereferenceable(56) %0) unnamed_addr #8 comdat align 2 !dbg !6064 {
  %2 = alloca %"class.std::unordered_map"*, align 8
  store %"class.std::unordered_map"* %0, %"class.std::unordered_map"** %2, align 8
  call void @llvm.dbg.declare(metadata %"class.std::unordered_map"** %2, metadata !6065, metadata !DIExpression()), !dbg !6066
  %3 = load %"class.std::unordered_map"*, %"class.std::unordered_map"** %2, align 8
  %4 = getelementptr inbounds %"class.std::unordered_map", %"class.std::unordered_map"* %3, i32 0, i32 0, !dbg !6067
  call void @_ZNSt10_HashtableIlSt4pairIKlSt3mapIllSt4lessIlESaIS0_IS1_lEEEESaIS8_ENSt8__detail10_Select1stESt8equal_toIlESt4hashIlENSA_18_Mod_range_hashingENSA_20_Default_ranged_hashENSA_20_Prime_rehash_policyENSA_17_Hashtable_traitsILb0ELb0ELb1EEEEC2Ev(%"class.std::_Hashtable"* noundef nonnull align 8 dereferenceable(56) %4) #3, !dbg !6067
  ret void, !dbg !6068
}

; Function Attrs: noinline nounwind optnone uwtable
define linkonce_odr dso_local void @_ZNSt6vectorISt5arrayImLm3EESaIS1_EEC2Ev(%"class.std::vector"* noundef nonnull align 8 dereferenceable(24) %0) unnamed_addr #8 comdat align 2 !dbg !6069 {
  %2 = alloca %"class.std::vector"*, align 8
  store %"class.std::vector"* %0, %"class.std::vector"** %2, align 8
  call void @llvm.dbg.declare(metadata %"class.std::vector"** %2, metadata !6070, metadata !DIExpression()), !dbg !6071
  %3 = load %"class.std::vector"*, %"class.std::vector"** %2, align 8
  %4 = bitcast %"class.std::vector"* %3 to %"struct.std::_Vector_base"*, !dbg !6072
  call void @_ZNSt12_Vector_baseISt5arrayImLm3EESaIS1_EEC2Ev(%"struct.std::_Vector_base"* noundef nonnull align 8 dereferenceable(24) %4) #3, !dbg !6073
  ret void, !dbg !6072
}

; Function Attrs: noinline nounwind optnone uwtable
define linkonce_odr dso_local void @_ZNSt8optionalIbEC2Ev(%"class.std::optional"* noundef nonnull align 1 dereferenceable(2) %0) unnamed_addr #8 comdat align 2 !dbg !6074 {
  %2 = alloca %"class.std::optional"*, align 8
  store %"class.std::optional"* %0, %"class.std::optional"** %2, align 8
  call void @llvm.dbg.declare(metadata %"class.std::optional"** %2, metadata !6075, metadata !DIExpression()), !dbg !6076
  %3 = load %"class.std::optional"*, %"class.std::optional"** %2, align 8
  %4 = bitcast %"class.std::optional"* %3 to %"struct.std::_Optional_base"*, !dbg !6077
  call void @_ZNSt14_Optional_baseIbLb1ELb1EEC2Ev(%"struct.std::_Optional_base"* noundef nonnull align 1 dereferenceable(2) %4) #3, !dbg !6078
  %5 = bitcast %"class.std::optional"* %3 to %"struct.std::_Enable_copy_move"*, !dbg !6077
  ret void, !dbg !6079
}

; Function Attrs: nounwind
declare i32 @getpid() #2

; Function Attrs: mustprogress noinline optnone uwtable
define linkonce_odr dso_local void @_ZStplIcSt11char_traitsIcESaIcEENSt7__cxx1112basic_stringIT_T0_T1_EEOS8_PKS5_(%"class.std::__cxx11::basic_string"* noalias sret(%"class.std::__cxx11::basic_string") align 8 %0, %"class.std::__cxx11::basic_string"* noundef nonnull align 8 dereferenceable(32) %1, i8* noundef %2) #4 comdat !dbg !6080 {
  %4 = alloca i8*, align 8
  %5 = alloca %"class.std::__cxx11::basic_string"*, align 8
  %6 = alloca i8*, align 8
  %7 = bitcast %"class.std::__cxx11::basic_string"* %0 to i8*
  store i8* %7, i8** %4, align 8
  store %"class.std::__cxx11::basic_string"* %1, %"class.std::__cxx11::basic_string"** %5, align 8
  call void @llvm.dbg.declare(metadata %"class.std::__cxx11::basic_string"** %5, metadata !6083, metadata !DIExpression()), !dbg !6084
  store i8* %2, i8** %6, align 8
  call void @llvm.dbg.declare(metadata i8** %6, metadata !6085, metadata !DIExpression()), !dbg !6086
  %8 = load %"class.std::__cxx11::basic_string"*, %"class.std::__cxx11::basic_string"** %5, align 8, !dbg !6087
  %9 = load i8*, i8** %6, align 8, !dbg !6088
  %10 = call noundef nonnull align 8 dereferenceable(32) %"class.std::__cxx11::basic_string"* @_ZNSt7__cxx1112basic_stringIcSt11char_traitsIcESaIcEE6appendEPKc(%"class.std::__cxx11::basic_string"* noundef nonnull align 8 dereferenceable(32) %8, i8* noundef %9), !dbg !6089
  %11 = call noundef nonnull align 8 dereferenceable(32) %"class.std::__cxx11::basic_string"* @_ZSt4moveIRNSt7__cxx1112basic_stringIcSt11char_traitsIcESaIcEEEEONSt16remove_referenceIT_E4typeEOS8_(%"class.std::__cxx11::basic_string"* noundef nonnull align 8 dereferenceable(32) %10) #3, !dbg !6090
  call void @_ZNSt7__cxx1112basic_stringIcSt11char_traitsIcESaIcEEC2EOS4_(%"class.std::__cxx11::basic_string"* noundef nonnull align 8 dereferenceable(32) %0, %"class.std::__cxx11::basic_string"* noundef nonnull align 8 dereferenceable(32) %11) #3, !dbg !6090
  ret void, !dbg !6091
}

; Function Attrs: mustprogress noinline optnone uwtable
define linkonce_odr dso_local void @_ZStplIcSt11char_traitsIcESaIcEENSt7__cxx1112basic_stringIT_T0_T1_EEPKS5_OS8_(%"class.std::__cxx11::basic_string"* noalias sret(%"class.std::__cxx11::basic_string") align 8 %0, i8* noundef %1, %"class.std::__cxx11::basic_string"* noundef nonnull align 8 dereferenceable(32) %2) #4 comdat !dbg !6092 {
  %4 = alloca i8*, align 8
  %5 = alloca i8*, align 8
  %6 = alloca %"class.std::__cxx11::basic_string"*, align 8
  %7 = bitcast %"class.std::__cxx11::basic_string"* %0 to i8*
  store i8* %7, i8** %4, align 8
  store i8* %1, i8** %5, align 8
  call void @llvm.dbg.declare(metadata i8** %5, metadata !6095, metadata !DIExpression()), !dbg !6096
  store %"class.std::__cxx11::basic_string"* %2, %"class.std::__cxx11::basic_string"** %6, align 8
  call void @llvm.dbg.declare(metadata %"class.std::__cxx11::basic_string"** %6, metadata !6097, metadata !DIExpression()), !dbg !6098
  %8 = load %"class.std::__cxx11::basic_string"*, %"class.std::__cxx11::basic_string"** %6, align 8, !dbg !6099
  %9 = load i8*, i8** %5, align 8, !dbg !6100
  %10 = call noundef nonnull align 8 dereferenceable(32) %"class.std::__cxx11::basic_string"* @_ZNSt7__cxx1112basic_stringIcSt11char_traitsIcESaIcEE6insertEmPKc(%"class.std::__cxx11::basic_string"* noundef nonnull align 8 dereferenceable(32) %8, i64 noundef 0, i8* noundef %9), !dbg !6101
  %11 = call noundef nonnull align 8 dereferenceable(32) %"class.std::__cxx11::basic_string"* @_ZSt4moveIRNSt7__cxx1112basic_stringIcSt11char_traitsIcESaIcEEEEONSt16remove_referenceIT_E4typeEOS8_(%"class.std::__cxx11::basic_string"* noundef nonnull align 8 dereferenceable(32) %10) #3, !dbg !6102
  call void @_ZNSt7__cxx1112basic_stringIcSt11char_traitsIcESaIcEEC2EOS4_(%"class.std::__cxx11::basic_string"* noundef nonnull align 8 dereferenceable(32) %0, %"class.std::__cxx11::basic_string"* noundef nonnull align 8 dereferenceable(32) %11) #3, !dbg !6102
  ret void, !dbg !6103
}

; Function Attrs: mustprogress noinline optnone uwtable
define linkonce_odr dso_local void @_ZNSt7__cxx119to_stringEi(%"class.std::__cxx11::basic_string"* noalias sret(%"class.std::__cxx11::basic_string") align 8 %0, i32 noundef %1) #4 comdat personality i8* bitcast (i32 (...)* @__gxx_personality_v0 to i8*) !dbg !6104 {
  %3 = alloca i8*, align 8
  %4 = alloca i32, align 4
  %5 = alloca i8, align 1
  %6 = alloca i32, align 4
  %7 = alloca i32, align 4
  %8 = alloca i1, align 1
  %9 = alloca %"class.std::allocator.17", align 1
  %10 = alloca i8*, align 8
  %11 = alloca i32, align 4
  %12 = bitcast %"class.std::__cxx11::basic_string"* %0 to i8*
  store i8* %12, i8** %3, align 8
  store i32 %1, i32* %4, align 4
  call void @llvm.dbg.declare(metadata i32* %4, metadata !6107, metadata !DIExpression()), !dbg !6108
  call void @llvm.dbg.declare(metadata i8* %5, metadata !6109, metadata !DIExpression()), !dbg !6110
  %13 = load i32, i32* %4, align 4, !dbg !6111
  %14 = icmp slt i32 %13, 0, !dbg !6112
  %15 = zext i1 %14 to i8, !dbg !6110
  store i8 %15, i8* %5, align 1, !dbg !6110
  call void @llvm.dbg.declare(metadata i32* %6, metadata !6113, metadata !DIExpression()), !dbg !6115
  %16 = load i8, i8* %5, align 1, !dbg !6116
  %17 = trunc i8 %16 to i1, !dbg !6116
  br i1 %17, label %18, label %22, !dbg !6116

18:                                               ; preds = %2
  %19 = load i32, i32* %4, align 4, !dbg !6117
  %20 = xor i32 %19, -1, !dbg !6118
  %21 = add i32 %20, 1, !dbg !6119
  br label %24, !dbg !6116

22:                                               ; preds = %2
  %23 = load i32, i32* %4, align 4, !dbg !6120
  br label %24, !dbg !6116

24:                                               ; preds = %22, %18
  %25 = phi i32 [ %21, %18 ], [ %23, %22 ], !dbg !6116
  store i32 %25, i32* %6, align 4, !dbg !6115
  call void @llvm.dbg.declare(metadata i32* %7, metadata !6121, metadata !DIExpression()), !dbg !6122
  %26 = load i32, i32* %6, align 4, !dbg !6123
  %27 = call noundef i32 @_ZNSt8__detail14__to_chars_lenIjEEjT_i(i32 noundef %26, i32 noundef 10) #3, !dbg !6124
  store i32 %27, i32* %7, align 4, !dbg !6122
  store i1 false, i1* %8, align 1, !dbg !6125
  call void @llvm.dbg.declare(metadata i8** %3, metadata !6126, metadata !DIExpression(DW_OP_deref)), !dbg !6127
  %28 = load i8, i8* %5, align 1, !dbg !6128
  %29 = trunc i8 %28 to i1, !dbg !6128
  %30 = zext i1 %29 to i32, !dbg !6128
  %31 = load i32, i32* %7, align 4, !dbg !6129
  %32 = add i32 %30, %31, !dbg !6130
  %33 = zext i32 %32 to i64, !dbg !6128
  call void @_ZNSaIcEC1Ev(%"class.std::allocator.17"* noundef nonnull align 1 dereferenceable(1) %9) #3, !dbg !6127
  invoke void @_ZNSt7__cxx1112basic_stringIcSt11char_traitsIcESaIcEEC2IS3_EEmcRKS3_(%"class.std::__cxx11::basic_string"* noundef nonnull align 8 dereferenceable(32) %0, i64 noundef %33, i8 noundef signext 45, %"class.std::allocator.17"* noundef nonnull align 1 dereferenceable(1) %9)
          to label %34 unwind label %43, !dbg !6127

34:                                               ; preds = %24
  call void @_ZNSaIcED1Ev(%"class.std::allocator.17"* noundef nonnull align 1 dereferenceable(1) %9) #3, !dbg !6127
  %35 = load i8, i8* %5, align 1, !dbg !6131
  %36 = trunc i8 %35 to i1, !dbg !6131
  %37 = zext i1 %36 to i64, !dbg !6131
  %38 = invoke noundef nonnull align 1 dereferenceable(1) i8* @_ZNSt7__cxx1112basic_stringIcSt11char_traitsIcESaIcEEixEm(%"class.std::__cxx11::basic_string"* noundef nonnull align 8 dereferenceable(32) %0, i64 noundef %37)
          to label %39 unwind label %47, !dbg !6132

39:                                               ; preds = %34
  %40 = load i32, i32* %7, align 4, !dbg !6133
  %41 = load i32, i32* %6, align 4, !dbg !6134
  call void @_ZNSt8__detail18__to_chars_10_implIjEEvPcjT_(i8* noundef %38, i32 noundef %40, i32 noundef %41) #3, !dbg !6135
  store i1 true, i1* %8, align 1, !dbg !6136
  %42 = load i1, i1* %8, align 1, !dbg !6137
  br i1 %42, label %52, label %51, !dbg !6137

43:                                               ; preds = %24
  %44 = landingpad { i8*, i32 }
          cleanup, !dbg !6137
  %45 = extractvalue { i8*, i32 } %44, 0, !dbg !6137
  store i8* %45, i8** %10, align 8, !dbg !6137
  %46 = extractvalue { i8*, i32 } %44, 1, !dbg !6137
  store i32 %46, i32* %11, align 4, !dbg !6137
  call void @_ZNSaIcED1Ev(%"class.std::allocator.17"* noundef nonnull align 1 dereferenceable(1) %9) #3, !dbg !6127
  br label %53, !dbg !6127

47:                                               ; preds = %34
  %48 = landingpad { i8*, i32 }
          cleanup, !dbg !6137
  %49 = extractvalue { i8*, i32 } %48, 0, !dbg !6137
  store i8* %49, i8** %10, align 8, !dbg !6137
  %50 = extractvalue { i8*, i32 } %48, 1, !dbg !6137
  store i32 %50, i32* %11, align 4, !dbg !6137
  call void @_ZNSt7__cxx1112basic_stringIcSt11char_traitsIcESaIcEED2Ev(%"class.std::__cxx11::basic_string"* noundef nonnull align 8 dereferenceable(32) %0) #3, !dbg !6137
  br label %53, !dbg !6137

51:                                               ; preds = %39
  call void @_ZNSt7__cxx1112basic_stringIcSt11char_traitsIcESaIcEED2Ev(%"class.std::__cxx11::basic_string"* noundef nonnull align 8 dereferenceable(32) %0) #3, !dbg !6137
  br label %52, !dbg !6137

52:                                               ; preds = %51, %39
  ret void, !dbg !6137

53:                                               ; preds = %47, %43
  %54 = load i8*, i8** %10, align 8, !dbg !6127
  %55 = load i32, i32* %11, align 4, !dbg !6127
  %56 = insertvalue { i8*, i32 } undef, i8* %54, 0, !dbg !6127
  %57 = insertvalue { i8*, i32 } %56, i32 %55, 1, !dbg !6127
  resume { i8*, i32 } %57, !dbg !6127
}

; Function Attrs: noinline nounwind optnone uwtable
define linkonce_odr dso_local void @_ZNSt7__cxx1112basic_stringIcSt11char_traitsIcESaIcEED2Ev(%"class.std::__cxx11::basic_string"* noundef nonnull align 8 dereferenceable(32) %0) unnamed_addr #8 comdat align 2 personality i8* bitcast (i32 (...)* @__gxx_personality_v0 to i8*) !dbg !6138 {
  %2 = alloca %"class.std::__cxx11::basic_string"*, align 8
  %3 = alloca i8*, align 8
  %4 = alloca i32, align 4
  store %"class.std::__cxx11::basic_string"* %0, %"class.std::__cxx11::basic_string"** %2, align 8
  call void @llvm.dbg.declare(metadata %"class.std::__cxx11::basic_string"** %2, metadata !6139, metadata !DIExpression()), !dbg !6141
  %5 = load %"class.std::__cxx11::basic_string"*, %"class.std::__cxx11::basic_string"** %2, align 8
  invoke void @_ZNSt7__cxx1112basic_stringIcSt11char_traitsIcESaIcEE10_M_disposeEv(%"class.std::__cxx11::basic_string"* noundef nonnull align 8 dereferenceable(32) %5)
          to label %6 unwind label %8, !dbg !6142

6:                                                ; preds = %1
  %7 = getelementptr inbounds %"class.std::__cxx11::basic_string", %"class.std::__cxx11::basic_string"* %5, i32 0, i32 0, !dbg !6144
  call void @_ZNSt7__cxx1112basic_stringIcSt11char_traitsIcESaIcEE12_Alloc_hiderD2Ev(%"struct.std::__cxx11::basic_string<char>::_Alloc_hider"* noundef nonnull align 8 dereferenceable(8) %7) #3, !dbg !6144
  ret void, !dbg !6145

8:                                                ; preds = %1
  %9 = landingpad { i8*, i32 }
          catch i8* null, !dbg !6144
  %10 = extractvalue { i8*, i32 } %9, 0, !dbg !6144
  store i8* %10, i8** %3, align 8, !dbg !6144
  %11 = extractvalue { i8*, i32 } %9, 1, !dbg !6144
  store i32 %11, i32* %4, align 4, !dbg !6144
  %12 = getelementptr inbounds %"class.std::__cxx11::basic_string", %"class.std::__cxx11::basic_string"* %5, i32 0, i32 0, !dbg !6144
  call void @_ZNSt7__cxx1112basic_stringIcSt11char_traitsIcESaIcEE12_Alloc_hiderD2Ev(%"struct.std::__cxx11::basic_string<char>::_Alloc_hider"* noundef nonnull align 8 dereferenceable(8) %12) #3, !dbg !6144
  br label %13, !dbg !6144

13:                                               ; preds = %8
  %14 = load i8*, i8** %3, align 8, !dbg !6144
  call void @__clang_call_terminate(i8* %14) #20, !dbg !6144
  unreachable, !dbg !6144
}

declare i32 @system(i8* noundef) #1

; Function Attrs: mustprogress noinline nounwind optnone uwtable
define linkonce_odr dso_local noundef i8* @_ZNKSt7__cxx1112basic_stringIcSt11char_traitsIcESaIcEE5c_strEv(%"class.std::__cxx11::basic_string"* noundef nonnull align 8 dereferenceable(32) %0) #6 comdat align 2 !dbg !6146 {
  %2 = alloca %"class.std::__cxx11::basic_string"*, align 8
  store %"class.std::__cxx11::basic_string"* %0, %"class.std::__cxx11::basic_string"** %2, align 8
  call void @llvm.dbg.declare(metadata %"class.std::__cxx11::basic_string"** %2, metadata !6147, metadata !DIExpression()), !dbg !6149
  %3 = load %"class.std::__cxx11::basic_string"*, %"class.std::__cxx11::basic_string"** %2, align 8
  %4 = call noundef i8* @_ZNKSt7__cxx1112basic_stringIcSt11char_traitsIcESaIcEE7_M_dataEv(%"class.std::__cxx11::basic_string"* noundef nonnull align 8 dereferenceable(32) %3), !dbg !6150
  ret i8* %4, !dbg !6151
}

; Function Attrs: noinline nounwind optnone uwtable
define linkonce_odr dso_local void @_ZNSt6vectorISt5arrayImLm3EESaIS1_EED2Ev(%"class.std::vector"* noundef nonnull align 8 dereferenceable(24) %0) unnamed_addr #8 comdat align 2 personality i8* bitcast (i32 (...)* @__gxx_personality_v0 to i8*) !dbg !6152 {
  %2 = alloca %"class.std::vector"*, align 8
  %3 = alloca i8*, align 8
  %4 = alloca i32, align 4
  store %"class.std::vector"* %0, %"class.std::vector"** %2, align 8
  call void @llvm.dbg.declare(metadata %"class.std::vector"** %2, metadata !6153, metadata !DIExpression()), !dbg !6154
  %5 = load %"class.std::vector"*, %"class.std::vector"** %2, align 8
  %6 = bitcast %"class.std::vector"* %5 to %"struct.std::_Vector_base"*, !dbg !6155
  %7 = getelementptr inbounds %"struct.std::_Vector_base", %"struct.std::_Vector_base"* %6, i32 0, i32 0, !dbg !6155
  %8 = bitcast %"struct.std::_Vector_base<std::array<unsigned long, 3>, std::allocator<std::array<unsigned long, 3>>>::_Vector_impl"* %7 to %"struct.std::_Vector_base<std::array<unsigned long, 3>, std::allocator<std::array<unsigned long, 3>>>::_Vector_impl_data"*, !dbg !6157
  %9 = getelementptr inbounds %"struct.std::_Vector_base<std::array<unsigned long, 3>, std::allocator<std::array<unsigned long, 3>>>::_Vector_impl_data", %"struct.std::_Vector_base<std::array<unsigned long, 3>, std::allocator<std::array<unsigned long, 3>>>::_Vector_impl_data"* %8, i32 0, i32 0, !dbg !6158
  %10 = load %"struct.std::array"*, %"struct.std::array"** %9, align 8, !dbg !6158
  %11 = bitcast %"class.std::vector"* %5 to %"struct.std::_Vector_base"*, !dbg !6159
  %12 = getelementptr inbounds %"struct.std::_Vector_base", %"struct.std::_Vector_base"* %11, i32 0, i32 0, !dbg !6159
  %13 = bitcast %"struct.std::_Vector_base<std::array<unsigned long, 3>, std::allocator<std::array<unsigned long, 3>>>::_Vector_impl"* %12 to %"struct.std::_Vector_base<std::array<unsigned long, 3>, std::allocator<std::array<unsigned long, 3>>>::_Vector_impl_data"*, !dbg !6160
  %14 = getelementptr inbounds %"struct.std::_Vector_base<std::array<unsigned long, 3>, std::allocator<std::array<unsigned long, 3>>>::_Vector_impl_data", %"struct.std::_Vector_base<std::array<unsigned long, 3>, std::allocator<std::array<unsigned long, 3>>>::_Vector_impl_data"* %13, i32 0, i32 1, !dbg !6161
  %15 = load %"struct.std::array"*, %"struct.std::array"** %14, align 8, !dbg !6161
  %16 = bitcast %"class.std::vector"* %5 to %"struct.std::_Vector_base"*, !dbg !6162
  %17 = call noundef nonnull align 1 dereferenceable(1) %"class.std::allocator.2"* @_ZNSt12_Vector_baseISt5arrayImLm3EESaIS1_EE19_M_get_Tp_allocatorEv(%"struct.std::_Vector_base"* noundef nonnull align 8 dereferenceable(24) %16) #3, !dbg !6162
  invoke void @_ZSt8_DestroyIPSt5arrayImLm3EES1_EvT_S3_RSaIT0_E(%"struct.std::array"* noundef %10, %"struct.std::array"* noundef %15, %"class.std::allocator.2"* noundef nonnull align 1 dereferenceable(1) %17)
          to label %18 unwind label %20, !dbg !6163

18:                                               ; preds = %1
  %19 = bitcast %"class.std::vector"* %5 to %"struct.std::_Vector_base"*, !dbg !6164
  call void @_ZNSt12_Vector_baseISt5arrayImLm3EESaIS1_EED2Ev(%"struct.std::_Vector_base"* noundef nonnull align 8 dereferenceable(24) %19) #3, !dbg !6164
  ret void, !dbg !6165

20:                                               ; preds = %1
  %21 = landingpad { i8*, i32 }
          catch i8* null, !dbg !6164
  %22 = extractvalue { i8*, i32 } %21, 0, !dbg !6164
  store i8* %22, i8** %3, align 8, !dbg !6164
  %23 = extractvalue { i8*, i32 } %21, 1, !dbg !6164
  store i32 %23, i32* %4, align 4, !dbg !6164
  %24 = bitcast %"class.std::vector"* %5 to %"struct.std::_Vector_base"*, !dbg !6164
  call void @_ZNSt12_Vector_baseISt5arrayImLm3EESaIS1_EED2Ev(%"struct.std::_Vector_base"* noundef nonnull align 8 dereferenceable(24) %24) #3, !dbg !6164
  br label %25, !dbg !6164

25:                                               ; preds = %20
  %26 = load i8*, i8** %3, align 8, !dbg !6164
  call void @__clang_call_terminate(i8* %26) #20, !dbg !6164
  unreachable, !dbg !6164
}

; Function Attrs: noinline nounwind optnone uwtable
define linkonce_odr dso_local void @_ZNSt13unordered_mapIlSt3mapIllSt4lessIlESaISt4pairIKllEEESt4hashIlESt8equal_toIlESaIS3_IS4_S7_EEED2Ev(%"class.std::unordered_map"* noundef nonnull align 8 dereferenceable(56) %0) unnamed_addr #8 comdat align 2 !dbg !6166 {
  %2 = alloca %"class.std::unordered_map"*, align 8
  store %"class.std::unordered_map"* %0, %"class.std::unordered_map"** %2, align 8
  call void @llvm.dbg.declare(metadata %"class.std::unordered_map"** %2, metadata !6168, metadata !DIExpression()), !dbg !6169
  %3 = load %"class.std::unordered_map"*, %"class.std::unordered_map"** %2, align 8
  %4 = getelementptr inbounds %"class.std::unordered_map", %"class.std::unordered_map"* %3, i32 0, i32 0, !dbg !6170
  call void @_ZNSt10_HashtableIlSt4pairIKlSt3mapIllSt4lessIlESaIS0_IS1_lEEEESaIS8_ENSt8__detail10_Select1stESt8equal_toIlESt4hashIlENSA_18_Mod_range_hashingENSA_20_Default_ranged_hashENSA_20_Prime_rehash_policyENSA_17_Hashtable_traitsILb0ELb0ELb1EEEED2Ev(%"class.std::_Hashtable"* noundef nonnull align 8 dereferenceable(56) %4) #3, !dbg !6170
  ret void, !dbg !6172
}

; Function Attrs: noinline nounwind optnone uwtable
define linkonce_odr dso_local void @_ZNSt10_HashtableIlSt4pairIKlSt3mapIllSt4lessIlESaIS0_IS1_lEEEESaIS8_ENSt8__detail10_Select1stESt8equal_toIlESt4hashIlENSA_18_Mod_range_hashingENSA_20_Default_ranged_hashENSA_20_Prime_rehash_policyENSA_17_Hashtable_traitsILb0ELb0ELb1EEEEC2Ev(%"class.std::_Hashtable"* noundef nonnull align 8 dereferenceable(56) %0) unnamed_addr #8 comdat align 2 !dbg !6173 {
  %2 = alloca %"class.std::_Hashtable"*, align 8
  store %"class.std::_Hashtable"* %0, %"class.std::_Hashtable"** %2, align 8
  call void @llvm.dbg.declare(metadata %"class.std::_Hashtable"** %2, metadata !6174, metadata !DIExpression()), !dbg !6176
  %3 = load %"class.std::_Hashtable"*, %"class.std::_Hashtable"** %2, align 8
  %4 = bitcast %"class.std::_Hashtable"* %3 to %"struct.std::__detail::_Hashtable_base"*, !dbg !6177
  call void @_ZNSt8__detail15_Hashtable_baseIlSt4pairIKlSt3mapIllSt4lessIlESaIS1_IS2_lEEEENS_10_Select1stESt8equal_toIlESt4hashIlENS_18_Mod_range_hashingENS_20_Default_ranged_hashENS_17_Hashtable_traitsILb0ELb0ELb1EEEEC2Ev(%"struct.std::__detail::_Hashtable_base"* noundef nonnull align 1 dereferenceable(1) %4) #3, !dbg !6178
  %5 = bitcast %"class.std::_Hashtable"* %3 to %"struct.std::__detail::_Map_base"*, !dbg !6177
  %6 = bitcast %"class.std::_Hashtable"* %3 to %"struct.std::__detail::_Insert"*, !dbg !6177
  %7 = bitcast %"class.std::_Hashtable"* %3 to %"struct.std::__detail::_Rehash_base"*, !dbg !6177
  %8 = bitcast %"class.std::_Hashtable"* %3 to %"struct.std::__detail::_Equality"*, !dbg !6177
  %9 = bitcast %"class.std::_Hashtable"* %3 to %"struct.std::__detail::_Hashtable_alloc"*, !dbg !6177
  call void @_ZNSt8__detail16_Hashtable_allocISaINS_10_Hash_nodeISt4pairIKlSt3mapIllSt4lessIlESaIS2_IS3_lEEEELb0EEEEEC2Ev(%"struct.std::__detail::_Hashtable_alloc"* noundef nonnull align 1 dereferenceable(1) %9) #3, !dbg !6178
  %10 = bitcast %"class.std::_Hashtable"* %3 to %"struct.std::_Enable_default_constructor"*, !dbg !6177
  %11 = getelementptr inbounds %"class.std::_Hashtable", %"class.std::_Hashtable"* %3, i32 0, i32 0, !dbg !6179
  %12 = getelementptr inbounds %"class.std::_Hashtable", %"class.std::_Hashtable"* %3, i32 0, i32 5, !dbg !6180
  store %"struct.std::__detail::_Hash_node_base"** %12, %"struct.std::__detail::_Hash_node_base"*** %11, align 8, !dbg !6179
  %13 = getelementptr inbounds %"class.std::_Hashtable", %"class.std::_Hashtable"* %3, i32 0, i32 1, !dbg !6181
  store i64 1, i64* %13, align 8, !dbg !6181
  %14 = getelementptr inbounds %"class.std::_Hashtable", %"class.std::_Hashtable"* %3, i32 0, i32 2, !dbg !6178
  call void @_ZNSt8__detail15_Hash_node_baseC2Ev(%"struct.std::__detail::_Hash_node_base"* noundef nonnull align 8 dereferenceable(8) %14) #3, !dbg !6178
  %15 = getelementptr inbounds %"class.std::_Hashtable", %"class.std::_Hashtable"* %3, i32 0, i32 3, !dbg !6182
  store i64 0, i64* %15, align 8, !dbg !6182
  %16 = getelementptr inbounds %"class.std::_Hashtable", %"class.std::_Hashtable"* %3, i32 0, i32 4, !dbg !6178
  call void @_ZNSt8__detail20_Prime_rehash_policyC2Ef(%"struct.std::__detail::_Prime_rehash_policy"* noundef nonnull align 8 dereferenceable(16) %16, float noundef 1.000000e+00) #3, !dbg !6178
  %17 = getelementptr inbounds %"class.std::_Hashtable", %"class.std::_Hashtable"* %3, i32 0, i32 5, !dbg !6183
  store %"struct.std::__detail::_Hash_node_base"* null, %"struct.std::__detail::_Hash_node_base"** %17, align 8, !dbg !6183
  ret void, !dbg !6177
}

; Function Attrs: noinline nounwind optnone uwtable
define linkonce_odr dso_local void @_ZNSt8__detail15_Hashtable_baseIlSt4pairIKlSt3mapIllSt4lessIlESaIS1_IS2_lEEEENS_10_Select1stESt8equal_toIlESt4hashIlENS_18_Mod_range_hashingENS_20_Default_ranged_hashENS_17_Hashtable_traitsILb0ELb0ELb1EEEEC2Ev(%"struct.std::__detail::_Hashtable_base"* noundef nonnull align 1 dereferenceable(1) %0) unnamed_addr #8 comdat align 2 !dbg !6184 {
  %2 = alloca %"struct.std::__detail::_Hashtable_base"*, align 8
  store %"struct.std::__detail::_Hashtable_base"* %0, %"struct.std::__detail::_Hashtable_base"** %2, align 8
  call void @llvm.dbg.declare(metadata %"struct.std::__detail::_Hashtable_base"** %2, metadata !6185, metadata !DIExpression()), !dbg !6187
  %3 = load %"struct.std::__detail::_Hashtable_base"*, %"struct.std::__detail::_Hashtable_base"** %2, align 8
  %4 = bitcast %"struct.std::__detail::_Hashtable_base"* %3 to %"struct.std::__detail::_Hash_code_base"*, !dbg !6188
  call void @_ZNSt8__detail15_Hash_code_baseIlSt4pairIKlSt3mapIllSt4lessIlESaIS1_IS2_lEEEENS_10_Select1stESt4hashIlENS_18_Mod_range_hashingENS_20_Default_ranged_hashELb0EEC2Ev(%"struct.std::__detail::_Hash_code_base"* noundef nonnull align 1 dereferenceable(1) %4) #3, !dbg !6189
  %5 = bitcast %"struct.std::__detail::_Hashtable_base"* %3 to %"struct.std::__detail::_Hashtable_ebo_helper.0"*, !dbg !6188
  call void @_ZNSt8__detail21_Hashtable_ebo_helperILi0ESt8equal_toIlELb1EEC2Ev(%"struct.std::__detail::_Hashtable_ebo_helper.0"* noundef nonnull align 1 dereferenceable(1) %5) #3, !dbg !6189
  ret void, !dbg !6188
}

; Function Attrs: noinline nounwind optnone uwtable
define linkonce_odr dso_local void @_ZNSt8__detail16_Hashtable_allocISaINS_10_Hash_nodeISt4pairIKlSt3mapIllSt4lessIlESaIS2_IS3_lEEEELb0EEEEEC2Ev(%"struct.std::__detail::_Hashtable_alloc"* noundef nonnull align 1 dereferenceable(1) %0) unnamed_addr #8 comdat align 2 !dbg !6190 {
  %2 = alloca %"struct.std::__detail::_Hashtable_alloc"*, align 8
  store %"struct.std::__detail::_Hashtable_alloc"* %0, %"struct.std::__detail::_Hashtable_alloc"** %2, align 8
  call void @llvm.dbg.declare(metadata %"struct.std::__detail::_Hashtable_alloc"** %2, metadata !6191, metadata !DIExpression()), !dbg !6193
  %3 = load %"struct.std::__detail::_Hashtable_alloc"*, %"struct.std::__detail::_Hashtable_alloc"** %2, align 8
  %4 = bitcast %"struct.std::__detail::_Hashtable_alloc"* %3 to %"struct.std::__detail::_Hashtable_ebo_helper.1"*, !dbg !6194
  call void @_ZNSt8__detail21_Hashtable_ebo_helperILi0ESaINS_10_Hash_nodeISt4pairIKlSt3mapIllSt4lessIlESaIS2_IS3_lEEEELb0EEEELb1EEC2Ev(%"struct.std::__detail::_Hashtable_ebo_helper.1"* noundef nonnull align 1 dereferenceable(1) %4) #3, !dbg !6195
  ret void, !dbg !6194
}

; Function Attrs: noinline nounwind optnone uwtable
define linkonce_odr dso_local void @_ZNSt8__detail15_Hash_node_baseC2Ev(%"struct.std::__detail::_Hash_node_base"* noundef nonnull align 8 dereferenceable(8) %0) unnamed_addr #8 comdat align 2 !dbg !6196 {
  %2 = alloca %"struct.std::__detail::_Hash_node_base"*, align 8
  store %"struct.std::__detail::_Hash_node_base"* %0, %"struct.std::__detail::_Hash_node_base"** %2, align 8
  call void @llvm.dbg.declare(metadata %"struct.std::__detail::_Hash_node_base"** %2, metadata !6197, metadata !DIExpression()), !dbg !6198
  %3 = load %"struct.std::__detail::_Hash_node_base"*, %"struct.std::__detail::_Hash_node_base"** %2, align 8
  %4 = getelementptr inbounds %"struct.std::__detail::_Hash_node_base", %"struct.std::__detail::_Hash_node_base"* %3, i32 0, i32 0, !dbg !6199
  store %"struct.std::__detail::_Hash_node_base"* null, %"struct.std::__detail::_Hash_node_base"** %4, align 8, !dbg !6199
  ret void, !dbg !6200
}

; Function Attrs: noinline nounwind optnone uwtable
define linkonce_odr dso_local void @_ZNSt8__detail20_Prime_rehash_policyC2Ef(%"struct.std::__detail::_Prime_rehash_policy"* noundef nonnull align 8 dereferenceable(16) %0, float noundef %1) unnamed_addr #8 comdat align 2 !dbg !6201 {
  %3 = alloca %"struct.std::__detail::_Prime_rehash_policy"*, align 8
  %4 = alloca float, align 4
  store %"struct.std::__detail::_Prime_rehash_policy"* %0, %"struct.std::__detail::_Prime_rehash_policy"** %3, align 8
  call void @llvm.dbg.declare(metadata %"struct.std::__detail::_Prime_rehash_policy"** %3, metadata !6202, metadata !DIExpression()), !dbg !6204
  store float %1, float* %4, align 4
  call void @llvm.dbg.declare(metadata float* %4, metadata !6205, metadata !DIExpression()), !dbg !6206
  %5 = load %"struct.std::__detail::_Prime_rehash_policy"*, %"struct.std::__detail::_Prime_rehash_policy"** %3, align 8
  %6 = getelementptr inbounds %"struct.std::__detail::_Prime_rehash_policy", %"struct.std::__detail::_Prime_rehash_policy"* %5, i32 0, i32 0, !dbg !6207
  %7 = load float, float* %4, align 4, !dbg !6208
  store float %7, float* %6, align 8, !dbg !6207
  %8 = getelementptr inbounds %"struct.std::__detail::_Prime_rehash_policy", %"struct.std::__detail::_Prime_rehash_policy"* %5, i32 0, i32 1, !dbg !6209
  store i64 0, i64* %8, align 8, !dbg !6209
  ret void, !dbg !6210
}

; Function Attrs: noinline nounwind optnone uwtable
define linkonce_odr dso_local void @_ZNSt8__detail15_Hash_code_baseIlSt4pairIKlSt3mapIllSt4lessIlESaIS1_IS2_lEEEENS_10_Select1stESt4hashIlENS_18_Mod_range_hashingENS_20_Default_ranged_hashELb0EEC2Ev(%"struct.std::__detail::_Hash_code_base"* noundef nonnull align 1 dereferenceable(1) %0) unnamed_addr #8 comdat align 2 !dbg !6211 {
  %2 = alloca %"struct.std::__detail::_Hash_code_base"*, align 8
  store %"struct.std::__detail::_Hash_code_base"* %0, %"struct.std::__detail::_Hash_code_base"** %2, align 8
  call void @llvm.dbg.declare(metadata %"struct.std::__detail::_Hash_code_base"** %2, metadata !6212, metadata !DIExpression()), !dbg !6214
  %3 = load %"struct.std::__detail::_Hash_code_base"*, %"struct.std::__detail::_Hash_code_base"** %2, align 8
  %4 = bitcast %"struct.std::__detail::_Hash_code_base"* %3 to %"struct.std::__detail::_Hashtable_ebo_helper"*, !dbg !6215
  call void @_ZNSt8__detail21_Hashtable_ebo_helperILi1ESt4hashIlELb1EEC2Ev(%"struct.std::__detail::_Hashtable_ebo_helper"* noundef nonnull align 1 dereferenceable(1) %4) #3, !dbg !6216
  ret void, !dbg !6215
}

; Function Attrs: noinline nounwind optnone uwtable
define linkonce_odr dso_local void @_ZNSt8__detail21_Hashtable_ebo_helperILi0ESt8equal_toIlELb1EEC2Ev(%"struct.std::__detail::_Hashtable_ebo_helper.0"* noundef nonnull align 1 dereferenceable(1) %0) unnamed_addr #8 comdat align 2 !dbg !6217 {
  %2 = alloca %"struct.std::__detail::_Hashtable_ebo_helper.0"*, align 8
  store %"struct.std::__detail::_Hashtable_ebo_helper.0"* %0, %"struct.std::__detail::_Hashtable_ebo_helper.0"** %2, align 8
  call void @llvm.dbg.declare(metadata %"struct.std::__detail::_Hashtable_ebo_helper.0"** %2, metadata !6218, metadata !DIExpression()), !dbg !6220
  %3 = load %"struct.std::__detail::_Hashtable_ebo_helper.0"*, %"struct.std::__detail::_Hashtable_ebo_helper.0"** %2, align 8
  %4 = bitcast %"struct.std::__detail::_Hashtable_ebo_helper.0"* %3 to %"struct.std::equal_to"*, !dbg !6221
  ret void, !dbg !6222
}

; Function Attrs: noinline nounwind optnone uwtable
define linkonce_odr dso_local void @_ZNSt8__detail21_Hashtable_ebo_helperILi1ESt4hashIlELb1EEC2Ev(%"struct.std::__detail::_Hashtable_ebo_helper"* noundef nonnull align 1 dereferenceable(1) %0) unnamed_addr #8 comdat align 2 !dbg !6223 {
  %2 = alloca %"struct.std::__detail::_Hashtable_ebo_helper"*, align 8
  store %"struct.std::__detail::_Hashtable_ebo_helper"* %0, %"struct.std::__detail::_Hashtable_ebo_helper"** %2, align 8
  call void @llvm.dbg.declare(metadata %"struct.std::__detail::_Hashtable_ebo_helper"** %2, metadata !6224, metadata !DIExpression()), !dbg !6226
  %3 = load %"struct.std::__detail::_Hashtable_ebo_helper"*, %"struct.std::__detail::_Hashtable_ebo_helper"** %2, align 8
  %4 = bitcast %"struct.std::__detail::_Hashtable_ebo_helper"* %3 to %"struct.std::hash"*, !dbg !6227
  ret void, !dbg !6228
}

; Function Attrs: noinline nounwind optnone uwtable
define linkonce_odr dso_local void @_ZNSt8__detail21_Hashtable_ebo_helperILi0ESaINS_10_Hash_nodeISt4pairIKlSt3mapIllSt4lessIlESaIS2_IS3_lEEEELb0EEEELb1EEC2Ev(%"struct.std::__detail::_Hashtable_ebo_helper.1"* noundef nonnull align 1 dereferenceable(1) %0) unnamed_addr #8 comdat align 2 !dbg !6229 {
  %2 = alloca %"struct.std::__detail::_Hashtable_ebo_helper.1"*, align 8
  store %"struct.std::__detail::_Hashtable_ebo_helper.1"* %0, %"struct.std::__detail::_Hashtable_ebo_helper.1"** %2, align 8
  call void @llvm.dbg.declare(metadata %"struct.std::__detail::_Hashtable_ebo_helper.1"** %2, metadata !6230, metadata !DIExpression()), !dbg !6232
  %3 = load %"struct.std::__detail::_Hashtable_ebo_helper.1"*, %"struct.std::__detail::_Hashtable_ebo_helper.1"** %2, align 8
  %4 = bitcast %"struct.std::__detail::_Hashtable_ebo_helper.1"* %3 to %"class.std::allocator"*, !dbg !6233
  call void @_ZNSaINSt8__detail10_Hash_nodeISt4pairIKlSt3mapIllSt4lessIlESaIS1_IS2_lEEEELb0EEEEC2Ev(%"class.std::allocator"* noundef nonnull align 1 dereferenceable(1) %4) #3, !dbg !6234
  ret void, !dbg !6235
}

; Function Attrs: noinline nounwind optnone uwtable
define linkonce_odr dso_local void @_ZNSaINSt8__detail10_Hash_nodeISt4pairIKlSt3mapIllSt4lessIlESaIS1_IS2_lEEEELb0EEEEC2Ev(%"class.std::allocator"* noundef nonnull align 1 dereferenceable(1) %0) unnamed_addr #8 comdat align 2 !dbg !6236 {
  %2 = alloca %"class.std::allocator"*, align 8
  store %"class.std::allocator"* %0, %"class.std::allocator"** %2, align 8
  call void @llvm.dbg.declare(metadata %"class.std::allocator"** %2, metadata !6237, metadata !DIExpression()), !dbg !6239
  %3 = load %"class.std::allocator"*, %"class.std::allocator"** %2, align 8
  %4 = bitcast %"class.std::allocator"* %3 to %"class.__gnu_cxx::new_allocator"*, !dbg !6240
  call void @_ZN9__gnu_cxx13new_allocatorINSt8__detail10_Hash_nodeISt4pairIKlSt3mapIllSt4lessIlESaIS3_IS4_lEEEELb0EEEEC2Ev(%"class.__gnu_cxx::new_allocator"* noundef nonnull align 1 dereferenceable(1) %4) #3, !dbg !6241
  ret void, !dbg !6242
}

; Function Attrs: noinline nounwind optnone uwtable
define linkonce_odr dso_local void @_ZN9__gnu_cxx13new_allocatorINSt8__detail10_Hash_nodeISt4pairIKlSt3mapIllSt4lessIlESaIS3_IS4_lEEEELb0EEEEC2Ev(%"class.__gnu_cxx::new_allocator"* noundef nonnull align 1 dereferenceable(1) %0) unnamed_addr #8 comdat align 2 !dbg !6243 {
  %2 = alloca %"class.__gnu_cxx::new_allocator"*, align 8
  store %"class.__gnu_cxx::new_allocator"* %0, %"class.__gnu_cxx::new_allocator"** %2, align 8
  call void @llvm.dbg.declare(metadata %"class.__gnu_cxx::new_allocator"** %2, metadata !6244, metadata !DIExpression()), !dbg !6246
  %3 = load %"class.__gnu_cxx::new_allocator"*, %"class.__gnu_cxx::new_allocator"** %2, align 8
  ret void, !dbg !6247
}

; Function Attrs: noinline nounwind optnone uwtable
define linkonce_odr dso_local void @_ZNSt12_Vector_baseISt5arrayImLm3EESaIS1_EEC2Ev(%"struct.std::_Vector_base"* noundef nonnull align 8 dereferenceable(24) %0) unnamed_addr #8 comdat align 2 !dbg !6248 {
  %2 = alloca %"struct.std::_Vector_base"*, align 8
  store %"struct.std::_Vector_base"* %0, %"struct.std::_Vector_base"** %2, align 8
  call void @llvm.dbg.declare(metadata %"struct.std::_Vector_base"** %2, metadata !6249, metadata !DIExpression()), !dbg !6251
  %3 = load %"struct.std::_Vector_base"*, %"struct.std::_Vector_base"** %2, align 8
  %4 = getelementptr inbounds %"struct.std::_Vector_base", %"struct.std::_Vector_base"* %3, i32 0, i32 0, !dbg !6252
  call void @_ZNSt12_Vector_baseISt5arrayImLm3EESaIS1_EE12_Vector_implC2Ev(%"struct.std::_Vector_base<std::array<unsigned long, 3>, std::allocator<std::array<unsigned long, 3>>>::_Vector_impl"* noundef nonnull align 8 dereferenceable(24) %4) #3, !dbg !6252
  ret void, !dbg !6253
}

; Function Attrs: noinline nounwind optnone uwtable
define linkonce_odr dso_local void @_ZNSt12_Vector_baseISt5arrayImLm3EESaIS1_EE12_Vector_implC2Ev(%"struct.std::_Vector_base<std::array<unsigned long, 3>, std::allocator<std::array<unsigned long, 3>>>::_Vector_impl"* noundef nonnull align 8 dereferenceable(24) %0) unnamed_addr #8 comdat align 2 !dbg !6254 {
  %2 = alloca %"struct.std::_Vector_base<std::array<unsigned long, 3>, std::allocator<std::array<unsigned long, 3>>>::_Vector_impl"*, align 8
  store %"struct.std::_Vector_base<std::array<unsigned long, 3>, std::allocator<std::array<unsigned long, 3>>>::_Vector_impl"* %0, %"struct.std::_Vector_base<std::array<unsigned long, 3>, std::allocator<std::array<unsigned long, 3>>>::_Vector_impl"** %2, align 8
  call void @llvm.dbg.declare(metadata %"struct.std::_Vector_base<std::array<unsigned long, 3>, std::allocator<std::array<unsigned long, 3>>>::_Vector_impl"** %2, metadata !6255, metadata !DIExpression()), !dbg !6257
  %3 = load %"struct.std::_Vector_base<std::array<unsigned long, 3>, std::allocator<std::array<unsigned long, 3>>>::_Vector_impl"*, %"struct.std::_Vector_base<std::array<unsigned long, 3>, std::allocator<std::array<unsigned long, 3>>>::_Vector_impl"** %2, align 8
  %4 = bitcast %"struct.std::_Vector_base<std::array<unsigned long, 3>, std::allocator<std::array<unsigned long, 3>>>::_Vector_impl"* %3 to %"class.std::allocator.2"*, !dbg !6258
  call void @_ZNSaISt5arrayImLm3EEEC2Ev(%"class.std::allocator.2"* noundef nonnull align 1 dereferenceable(1) %4) #3, !dbg !6259
  %5 = bitcast %"struct.std::_Vector_base<std::array<unsigned long, 3>, std::allocator<std::array<unsigned long, 3>>>::_Vector_impl"* %3 to %"struct.std::_Vector_base<std::array<unsigned long, 3>, std::allocator<std::array<unsigned long, 3>>>::_Vector_impl_data"*, !dbg !6258
  call void @_ZNSt12_Vector_baseISt5arrayImLm3EESaIS1_EE17_Vector_impl_dataC2Ev(%"struct.std::_Vector_base<std::array<unsigned long, 3>, std::allocator<std::array<unsigned long, 3>>>::_Vector_impl_data"* noundef nonnull align 8 dereferenceable(24) %5) #3, !dbg !6260
  ret void, !dbg !6261
}

; Function Attrs: noinline nounwind optnone uwtable
define linkonce_odr dso_local void @_ZNSaISt5arrayImLm3EEEC2Ev(%"class.std::allocator.2"* noundef nonnull align 1 dereferenceable(1) %0) unnamed_addr #8 comdat align 2 !dbg !6262 {
  %2 = alloca %"class.std::allocator.2"*, align 8
  store %"class.std::allocator.2"* %0, %"class.std::allocator.2"** %2, align 8
  call void @llvm.dbg.declare(metadata %"class.std::allocator.2"** %2, metadata !6263, metadata !DIExpression()), !dbg !6265
  %3 = load %"class.std::allocator.2"*, %"class.std::allocator.2"** %2, align 8
  %4 = bitcast %"class.std::allocator.2"* %3 to %"class.__gnu_cxx::new_allocator.3"*, !dbg !6266
  call void @_ZN9__gnu_cxx13new_allocatorISt5arrayImLm3EEEC2Ev(%"class.__gnu_cxx::new_allocator.3"* noundef nonnull align 1 dereferenceable(1) %4) #3, !dbg !6267
  ret void, !dbg !6268
}

; Function Attrs: noinline nounwind optnone uwtable
define linkonce_odr dso_local void @_ZNSt12_Vector_baseISt5arrayImLm3EESaIS1_EE17_Vector_impl_dataC2Ev(%"struct.std::_Vector_base<std::array<unsigned long, 3>, std::allocator<std::array<unsigned long, 3>>>::_Vector_impl_data"* noundef nonnull align 8 dereferenceable(24) %0) unnamed_addr #8 comdat align 2 !dbg !6269 {
  %2 = alloca %"struct.std::_Vector_base<std::array<unsigned long, 3>, std::allocator<std::array<unsigned long, 3>>>::_Vector_impl_data"*, align 8
  store %"struct.std::_Vector_base<std::array<unsigned long, 3>, std::allocator<std::array<unsigned long, 3>>>::_Vector_impl_data"* %0, %"struct.std::_Vector_base<std::array<unsigned long, 3>, std::allocator<std::array<unsigned long, 3>>>::_Vector_impl_data"** %2, align 8
  call void @llvm.dbg.declare(metadata %"struct.std::_Vector_base<std::array<unsigned long, 3>, std::allocator<std::array<unsigned long, 3>>>::_Vector_impl_data"** %2, metadata !6270, metadata !DIExpression()), !dbg !6272
  %3 = load %"struct.std::_Vector_base<std::array<unsigned long, 3>, std::allocator<std::array<unsigned long, 3>>>::_Vector_impl_data"*, %"struct.std::_Vector_base<std::array<unsigned long, 3>, std::allocator<std::array<unsigned long, 3>>>::_Vector_impl_data"** %2, align 8
  %4 = getelementptr inbounds %"struct.std::_Vector_base<std::array<unsigned long, 3>, std::allocator<std::array<unsigned long, 3>>>::_Vector_impl_data", %"struct.std::_Vector_base<std::array<unsigned long, 3>, std::allocator<std::array<unsigned long, 3>>>::_Vector_impl_data"* %3, i32 0, i32 0, !dbg !6273
  store %"struct.std::array"* null, %"struct.std::array"** %4, align 8, !dbg !6273
  %5 = getelementptr inbounds %"struct.std::_Vector_base<std::array<unsigned long, 3>, std::allocator<std::array<unsigned long, 3>>>::_Vector_impl_data", %"struct.std::_Vector_base<std::array<unsigned long, 3>, std::allocator<std::array<unsigned long, 3>>>::_Vector_impl_data"* %3, i32 0, i32 1, !dbg !6274
  store %"struct.std::array"* null, %"struct.std::array"** %5, align 8, !dbg !6274
  %6 = getelementptr inbounds %"struct.std::_Vector_base<std::array<unsigned long, 3>, std::allocator<std::array<unsigned long, 3>>>::_Vector_impl_data", %"struct.std::_Vector_base<std::array<unsigned long, 3>, std::allocator<std::array<unsigned long, 3>>>::_Vector_impl_data"* %3, i32 0, i32 2, !dbg !6275
  store %"struct.std::array"* null, %"struct.std::array"** %6, align 8, !dbg !6275
  ret void, !dbg !6276
}

; Function Attrs: noinline nounwind optnone uwtable
define linkonce_odr dso_local void @_ZN9__gnu_cxx13new_allocatorISt5arrayImLm3EEEC2Ev(%"class.__gnu_cxx::new_allocator.3"* noundef nonnull align 1 dereferenceable(1) %0) unnamed_addr #8 comdat align 2 !dbg !6277 {
  %2 = alloca %"class.__gnu_cxx::new_allocator.3"*, align 8
  store %"class.__gnu_cxx::new_allocator.3"* %0, %"class.__gnu_cxx::new_allocator.3"** %2, align 8
  call void @llvm.dbg.declare(metadata %"class.__gnu_cxx::new_allocator.3"** %2, metadata !6278, metadata !DIExpression()), !dbg !6280
  %3 = load %"class.__gnu_cxx::new_allocator.3"*, %"class.__gnu_cxx::new_allocator.3"** %2, align 8
  ret void, !dbg !6281
}

; Function Attrs: noinline nounwind optnone uwtable
define linkonce_odr dso_local void @_ZNSt14_Optional_baseIbLb1ELb1EEC2Ev(%"struct.std::_Optional_base"* noundef nonnull align 1 dereferenceable(2) %0) unnamed_addr #8 comdat align 2 !dbg !6282 {
  %2 = alloca %"struct.std::_Optional_base"*, align 8
  store %"struct.std::_Optional_base"* %0, %"struct.std::_Optional_base"** %2, align 8
  call void @llvm.dbg.declare(metadata %"struct.std::_Optional_base"** %2, metadata !6283, metadata !DIExpression()), !dbg !6284
  %3 = load %"struct.std::_Optional_base"*, %"struct.std::_Optional_base"** %2, align 8
  %4 = bitcast %"struct.std::_Optional_base"* %3 to %"class.std::_Optional_base_impl"*, !dbg !6285
  %5 = getelementptr inbounds %"struct.std::_Optional_base", %"struct.std::_Optional_base"* %3, i32 0, i32 0, !dbg !6286
  call void @_ZNSt17_Optional_payloadIbLb1ELb1ELb1EEC2Ev(%"struct.std::_Optional_payload"* noundef nonnull align 1 dereferenceable(2) %5) #3, !dbg !6286
  ret void, !dbg !6285
}

; Function Attrs: noinline nounwind optnone uwtable
define linkonce_odr dso_local void @_ZNSt17_Optional_payloadIbLb1ELb1ELb1EEC2Ev(%"struct.std::_Optional_payload"* noundef nonnull align 1 dereferenceable(2) %0) unnamed_addr #8 comdat align 2 !dbg !6287 {
  %2 = alloca %"struct.std::_Optional_payload"*, align 8
  store %"struct.std::_Optional_payload"* %0, %"struct.std::_Optional_payload"** %2, align 8
  call void @llvm.dbg.declare(metadata %"struct.std::_Optional_payload"** %2, metadata !6288, metadata !DIExpression()), !dbg !6289
  %3 = load %"struct.std::_Optional_payload"*, %"struct.std::_Optional_payload"** %2, align 8
  %4 = bitcast %"struct.std::_Optional_payload"* %3 to %"struct.std::_Optional_payload_base"*, !dbg !6290
  call void @_ZNSt22_Optional_payload_baseIbEC2Ev(%"struct.std::_Optional_payload_base"* noundef nonnull align 1 dereferenceable(2) %4) #3, !dbg !6291
  ret void, !dbg !6290
}

; Function Attrs: noinline nounwind optnone uwtable
define linkonce_odr dso_local void @_ZNSt22_Optional_payload_baseIbEC2Ev(%"struct.std::_Optional_payload_base"* noundef nonnull align 1 dereferenceable(2) %0) unnamed_addr #8 comdat align 2 !dbg !6292 {
  %2 = alloca %"struct.std::_Optional_payload_base"*, align 8
  store %"struct.std::_Optional_payload_base"* %0, %"struct.std::_Optional_payload_base"** %2, align 8
  call void @llvm.dbg.declare(metadata %"struct.std::_Optional_payload_base"** %2, metadata !6293, metadata !DIExpression()), !dbg !6294
  %3 = load %"struct.std::_Optional_payload_base"*, %"struct.std::_Optional_payload_base"** %2, align 8
  %4 = getelementptr inbounds %"struct.std::_Optional_payload_base", %"struct.std::_Optional_payload_base"* %3, i32 0, i32 0, !dbg !6295
  call void @_ZNSt22_Optional_payload_baseIbE8_StorageIbLb1EEC2Ev(%"union.std::_Optional_payload_base<bool>::_Storage"* noundef nonnull align 1 dereferenceable(1) %4) #3, !dbg !6295
  %5 = getelementptr inbounds %"struct.std::_Optional_payload_base", %"struct.std::_Optional_payload_base"* %3, i32 0, i32 1, !dbg !6296
  store i8 0, i8* %5, align 1, !dbg !6296
  ret void, !dbg !6297
}

; Function Attrs: noinline nounwind optnone uwtable
define linkonce_odr dso_local void @_ZNSt22_Optional_payload_baseIbE8_StorageIbLb1EEC2Ev(%"union.std::_Optional_payload_base<bool>::_Storage"* noundef nonnull align 1 dereferenceable(1) %0) unnamed_addr #8 comdat align 2 !dbg !6298 {
  %2 = alloca %"union.std::_Optional_payload_base<bool>::_Storage"*, align 8
  store %"union.std::_Optional_payload_base<bool>::_Storage"* %0, %"union.std::_Optional_payload_base<bool>::_Storage"** %2, align 8
  call void @llvm.dbg.declare(metadata %"union.std::_Optional_payload_base<bool>::_Storage"** %2, metadata !6299, metadata !DIExpression()), !dbg !6300
  %3 = load %"union.std::_Optional_payload_base<bool>::_Storage"*, %"union.std::_Optional_payload_base<bool>::_Storage"** %2, align 8
  %4 = bitcast %"union.std::_Optional_payload_base<bool>::_Storage"* %3 to %"struct.std::_Optional_payload_base<bool>::_Empty_byte"*, !dbg !6301
  ret void, !dbg !6302
}

; Function Attrs: mustprogress noinline nounwind optnone uwtable
define linkonce_odr dso_local noundef nonnull align 8 dereferenceable(32) %"class.std::__cxx11::basic_string"* @_ZSt4moveIRNSt7__cxx1112basic_stringIcSt11char_traitsIcESaIcEEEEONSt16remove_referenceIT_E4typeEOS8_(%"class.std::__cxx11::basic_string"* noundef nonnull align 8 dereferenceable(32) %0) #6 comdat !dbg !6303 {
  %2 = alloca %"class.std::__cxx11::basic_string"*, align 8
  store %"class.std::__cxx11::basic_string"* %0, %"class.std::__cxx11::basic_string"** %2, align 8
  call void @llvm.dbg.declare(metadata %"class.std::__cxx11::basic_string"** %2, metadata !6311, metadata !DIExpression()), !dbg !6312
  %3 = load %"class.std::__cxx11::basic_string"*, %"class.std::__cxx11::basic_string"** %2, align 8, !dbg !6313
  ret %"class.std::__cxx11::basic_string"* %3, !dbg !6314
}

; Function Attrs: mustprogress noinline optnone uwtable
define linkonce_odr dso_local noundef nonnull align 8 dereferenceable(32) %"class.std::__cxx11::basic_string"* @_ZNSt7__cxx1112basic_stringIcSt11char_traitsIcESaIcEE6appendEPKc(%"class.std::__cxx11::basic_string"* noundef nonnull align 8 dereferenceable(32) %0, i8* noundef %1) #4 comdat align 2 !dbg !6315 {
  %3 = alloca %"class.std::__cxx11::basic_string"*, align 8
  %4 = alloca i8*, align 8
  %5 = alloca i64, align 8
  store %"class.std::__cxx11::basic_string"* %0, %"class.std::__cxx11::basic_string"** %3, align 8
  call void @llvm.dbg.declare(metadata %"class.std::__cxx11::basic_string"** %3, metadata !6316, metadata !DIExpression()), !dbg !6317
  store i8* %1, i8** %4, align 8
  call void @llvm.dbg.declare(metadata i8** %4, metadata !6318, metadata !DIExpression()), !dbg !6319
  %6 = load %"class.std::__cxx11::basic_string"*, %"class.std::__cxx11::basic_string"** %3, align 8
  call void @llvm.dbg.declare(metadata i64* %5, metadata !6320, metadata !DIExpression()), !dbg !6321
  %7 = load i8*, i8** %4, align 8, !dbg !6322
  %8 = call noundef i64 @_ZNSt11char_traitsIcE6lengthEPKc(i8* noundef %7), !dbg !6323
  store i64 %8, i64* %5, align 8, !dbg !6321
  %9 = load i64, i64* %5, align 8, !dbg !6324
  call void @_ZNKSt7__cxx1112basic_stringIcSt11char_traitsIcESaIcEE15_M_check_lengthEmmPKc(%"class.std::__cxx11::basic_string"* noundef nonnull align 8 dereferenceable(32) %6, i64 noundef 0, i64 noundef %9, i8* noundef getelementptr inbounds ([21 x i8], [21 x i8]* @.str.8, i64 0, i64 0)), !dbg !6325
  %10 = load i8*, i8** %4, align 8, !dbg !6326
  %11 = load i64, i64* %5, align 8, !dbg !6327
  %12 = call noundef nonnull align 8 dereferenceable(32) %"class.std::__cxx11::basic_string"* @_ZNSt7__cxx1112basic_stringIcSt11char_traitsIcESaIcEE9_M_appendEPKcm(%"class.std::__cxx11::basic_string"* noundef nonnull align 8 dereferenceable(32) %6, i8* noundef %10, i64 noundef %11), !dbg !6328
  ret %"class.std::__cxx11::basic_string"* %12, !dbg !6329
}

; Function Attrs: noinline nounwind optnone uwtable
define linkonce_odr dso_local void @_ZNSt7__cxx1112basic_stringIcSt11char_traitsIcESaIcEEC2EOS4_(%"class.std::__cxx11::basic_string"* noundef nonnull align 8 dereferenceable(32) %0, %"class.std::__cxx11::basic_string"* noundef nonnull align 8 dereferenceable(32) %1) unnamed_addr #8 comdat align 2 personality i8* bitcast (i32 (...)* @__gxx_personality_v0 to i8*) !dbg !6330 {
  %3 = alloca %"class.std::__cxx11::basic_string"*, align 8
  %4 = alloca %"class.std::__cxx11::basic_string"*, align 8
  %5 = alloca i8*, align 8
  %6 = alloca i32, align 4
  store %"class.std::__cxx11::basic_string"* %0, %"class.std::__cxx11::basic_string"** %3, align 8
  call void @llvm.dbg.declare(metadata %"class.std::__cxx11::basic_string"** %3, metadata !6331, metadata !DIExpression()), !dbg !6332
  store %"class.std::__cxx11::basic_string"* %1, %"class.std::__cxx11::basic_string"** %4, align 8
  call void @llvm.dbg.declare(metadata %"class.std::__cxx11::basic_string"** %4, metadata !6333, metadata !DIExpression()), !dbg !6334
  %7 = load %"class.std::__cxx11::basic_string"*, %"class.std::__cxx11::basic_string"** %3, align 8
  %8 = getelementptr inbounds %"class.std::__cxx11::basic_string", %"class.std::__cxx11::basic_string"* %7, i32 0, i32 0, !dbg !6335
  %9 = invoke noundef i8* @_ZNSt7__cxx1112basic_stringIcSt11char_traitsIcESaIcEE13_M_local_dataEv(%"class.std::__cxx11::basic_string"* noundef nonnull align 8 dereferenceable(32) %7)
          to label %10 unwind label %47, !dbg !6336

10:                                               ; preds = %2
  %11 = load %"class.std::__cxx11::basic_string"*, %"class.std::__cxx11::basic_string"** %4, align 8, !dbg !6337
  %12 = call noundef nonnull align 1 dereferenceable(1) %"class.std::allocator.17"* @_ZNSt7__cxx1112basic_stringIcSt11char_traitsIcESaIcEE16_M_get_allocatorEv(%"class.std::__cxx11::basic_string"* noundef nonnull align 8 dereferenceable(32) %11), !dbg !6338
  %13 = call noundef nonnull align 1 dereferenceable(1) %"class.std::allocator.17"* @_ZSt4moveIRSaIcEEONSt16remove_referenceIT_E4typeEOS3_(%"class.std::allocator.17"* noundef nonnull align 1 dereferenceable(1) %12) #3, !dbg !6339
  invoke void @_ZNSt7__cxx1112basic_stringIcSt11char_traitsIcESaIcEE12_Alloc_hiderC2EPcOS3_(%"struct.std::__cxx11::basic_string<char>::_Alloc_hider"* noundef nonnull align 8 dereferenceable(8) %8, i8* noundef %9, %"class.std::allocator.17"* noundef nonnull align 1 dereferenceable(1) %13)
          to label %14 unwind label %47, !dbg !6335

14:                                               ; preds = %10
  %15 = load %"class.std::__cxx11::basic_string"*, %"class.std::__cxx11::basic_string"** %4, align 8, !dbg !6340
  %16 = invoke noundef zeroext i1 @_ZNKSt7__cxx1112basic_stringIcSt11char_traitsIcESaIcEE11_M_is_localEv(%"class.std::__cxx11::basic_string"* noundef nonnull align 8 dereferenceable(32) %15)
          to label %17 unwind label %27, !dbg !6343

17:                                               ; preds = %14
  br i1 %16, label %18, label %31, !dbg !6344

18:                                               ; preds = %17
  %19 = getelementptr inbounds %"class.std::__cxx11::basic_string", %"class.std::__cxx11::basic_string"* %7, i32 0, i32 2, !dbg !6345
  %20 = bitcast %union.anon.20* %19 to [16 x i8]*, !dbg !6345
  %21 = getelementptr inbounds [16 x i8], [16 x i8]* %20, i64 0, i64 0, !dbg !6345
  %22 = load %"class.std::__cxx11::basic_string"*, %"class.std::__cxx11::basic_string"** %4, align 8, !dbg !6347
  %23 = getelementptr inbounds %"class.std::__cxx11::basic_string", %"class.std::__cxx11::basic_string"* %22, i32 0, i32 2, !dbg !6348
  %24 = bitcast %union.anon.20* %23 to [16 x i8]*, !dbg !6348
  %25 = getelementptr inbounds [16 x i8], [16 x i8]* %24, i64 0, i64 0, !dbg !6347
  %26 = call noundef i8* @_ZNSt11char_traitsIcE4copyEPcPKcm(i8* noundef %21, i8* noundef %25, i64 noundef 16), !dbg !6349
  br label %38, !dbg !6350

27:                                               ; preds = %44, %38, %14
  %28 = landingpad { i8*, i32 }
          catch i8* null, !dbg !6351
  %29 = extractvalue { i8*, i32 } %28, 0, !dbg !6351
  store i8* %29, i8** %5, align 8, !dbg !6351
  %30 = extractvalue { i8*, i32 } %28, 1, !dbg !6351
  store i32 %30, i32* %6, align 4, !dbg !6351
  call void @_ZNSt7__cxx1112basic_stringIcSt11char_traitsIcESaIcEE12_Alloc_hiderD2Ev(%"struct.std::__cxx11::basic_string<char>::_Alloc_hider"* noundef nonnull align 8 dereferenceable(8) %8) #3, !dbg !6352
  br label %50, !dbg !6352

31:                                               ; preds = %17
  %32 = load %"class.std::__cxx11::basic_string"*, %"class.std::__cxx11::basic_string"** %4, align 8, !dbg !6353
  %33 = call noundef i8* @_ZNKSt7__cxx1112basic_stringIcSt11char_traitsIcESaIcEE7_M_dataEv(%"class.std::__cxx11::basic_string"* noundef nonnull align 8 dereferenceable(32) %32), !dbg !6355
  call void @_ZNSt7__cxx1112basic_stringIcSt11char_traitsIcESaIcEE7_M_dataEPc(%"class.std::__cxx11::basic_string"* noundef nonnull align 8 dereferenceable(32) %7, i8* noundef %33), !dbg !6356
  %34 = load %"class.std::__cxx11::basic_string"*, %"class.std::__cxx11::basic_string"** %4, align 8, !dbg !6357
  %35 = getelementptr inbounds %"class.std::__cxx11::basic_string", %"class.std::__cxx11::basic_string"* %34, i32 0, i32 2, !dbg !6358
  %36 = bitcast %union.anon.20* %35 to i64*, !dbg !6358
  %37 = load i64, i64* %36, align 8, !dbg !6358
  call void @_ZNSt7__cxx1112basic_stringIcSt11char_traitsIcESaIcEE11_M_capacityEm(%"class.std::__cxx11::basic_string"* noundef nonnull align 8 dereferenceable(32) %7, i64 noundef %37), !dbg !6359
  br label %38

38:                                               ; preds = %31, %18
  %39 = load %"class.std::__cxx11::basic_string"*, %"class.std::__cxx11::basic_string"** %4, align 8, !dbg !6360
